	.text
	.file	"closure::closures"
	.file	1 "/home/user/code/c3/closures.c3l" "closure.c3"
	.globl	closure.closures.init           # -- Begin function closure.closures.init
	.p2align	4, 0x90
	.type	closure.closures.init,@function
closure.closures.init:                  # @closure.closures.init
.Lfunc_begin0:
	.loc	1 19 0                          # closure.c3:19:0
	.cfi_startproc
# %bb.0:
	pushq	%rbp
	.cfi_def_cfa_offset 16
	.cfi_offset %rbp, -16
	movq	%rsp, %rbp
	.cfi_def_cfa_register %rbp
	subq	$64, %rsp
.Ltmp0:
	.loc	1 27 1 prologue_end             # closure.c3:27:1
	#APP

	pushq	%rax

	pushq	%rbx


	# First, load the address of "start:" into "code_ptr"
	leaq	.start, %rbx

	movq	code_ptr@GOTTPOFF(%rip), %rax

	movq	%rbx, %fs:(%rax)

	# Second, get the length of the assembly in bytes
	leaq	.start, %rax

	leaq	.end, %rbx

	subq	%rax, %rbx

	movq	code_len@GOTTPOFF(%rip), %rax

	movq	%rbx, %fs:(%rax)


	# Third, store the offset of the code into code_offset
	leaq	.start, %rax

	leaq	.start.code, %rbx

	subq	%rax, %rbx

	movq	code_offset@GOTTPOFF(%rip), %rax

	movq	%rbx, %fs:(%rax)


	# Fourth, store the offset of the data into code_arg_offset and jump to end
	leaq	.start, %rax

	leaq	.start.arg, %rbx

	subq	%rax, %rbx

	movq	code_arg_offset@GOTTPOFF(%rip), %rax

	movq	%rbx, %fs:(%rax)


	# Finally, store the offset of the data into code_func_offset and jump to end
	leaq	.start, %rax

	leaq	.start.func, %rbx

	subq	%rax, %rbx

	movq	code_func_offset@GOTTPOFF(%rip), %rax

	movq	%rbx, %fs:(%rax)


	popq	%rbx

	popq	%rax

	jmp	.end


.start:
.start.arg:
	.quad	0
.start.func:
	.quad	0
.start.code:
	retq

	pushq	%rax

	# TODO: why does pushing and popping %rdi cause it to break?
	# pushq %rdi;
	movq	%rdi, %rsi

	movq	.start.arg(%rip), %rdi
	# This should be the linux calling convention register for the first integer function parameter
	movq	.start.func(%rip), %rax

	callq	*%rax

	# popq %rdi;
	popq	%rax

	retq

.end:

	#NO_APP
	.loc	1 87 2                          # closure.c3:87:2
	movq	%fs:0, %rax
	leaq	closure.closures.allocated_size@TPOFF(%rax), %rax
	movq	%rax, -56(%rbp)                 # 8-byte Spill
	.loc	1 87 42 is_stmt 0               # closure.c3:87:42
	movq	code_len@GOTTPOFF(%rip), %rcx
	movq	%fs:0, %rax
	addq	%rcx, %rax
	movq	(%rax), %rdi
	.loc	1 87 19                         # closure.c3:87:19
	callq	std.core.mem.vm.aligned_alloc_size@PLT
	movq	%rax, %rcx
	movq	-56(%rbp), %rax                 # 8-byte Reload
	movq	%rcx, (%rax)
	.loc	1 89 2 is_stmt 1                # closure.c3:89:2
	movq	closures_data@GOTTPOFF(%rip), %rcx
	movq	%fs:0, %rax
	addq	%rcx, %rax
	movq	%rax, -40(%rbp)                 # 8-byte Spill
	.loc	1 89 36 is_stmt 0               # closure.c3:89:36
	movq	%fs:0, %rax
	leaq	closure.closures.allocated_size@TPOFF(%rax), %rax
	movq	%rax, -48(%rbp)                 # 8-byte Spill
	.loc	1 89 52                         # closure.c3:89:52
	movl	$6, %edi
	callq	std.core.mem.vm.VirtualMemoryAccess.to_posix@PLT
	movl	%eax, %edx
	movq	-48(%rbp), %rax                 # 8-byte Reload
	.loc	1 89 125                        # closure.c3:89:125
	movq	(%rax), %rsi
	.loc	1 89 18                         # closure.c3:89:18
	xorl	%eax, %eax
	movl	%eax, %r9d
	movl	$34, %ecx
	movl	$4294967295, %r8d               # imm = 0xFFFFFFFF
	movq	%r9, %rdi
	callq	mmap@PLT
	movq	%rax, %rcx
	movq	-40(%rbp), %rax                 # 8-byte Reload
	movq	%rcx, (%rax)
	.loc	1 90 6 is_stmt 1                # closure.c3:90:6
	movq	closures_data@GOTTPOFF(%rip), %rcx
	movq	%fs:0, %rax
	addq	%rcx, %rax
	movq	$-1, %rcx
	cmpq	%rcx, (%rax)
	jne	.LBB0_2
# %bb.1:
.Ltmp1:
	.loc	1 92 28                         # closure.c3:92:28
	callq	libc.errno@PLT
	movl	%eax, -20(%rbp)
	movq	($ct.libc.Errno)@GOTPCREL(%rip), %rax
	movq	%rax, -8(%rbp)
	leaq	-20(%rbp), %rax
	movq	%rax, -16(%rbp)
	.loc	1 92 3 is_stmt 0                # closure.c3:92:3
	leaq	-32(%rbp), %rdi
	leaq	.L.str(%rip), %rsi
	movl	$9, %edx
	leaq	-16(%rbp), %rcx
	movl	$1, %r8d
	callq	std.io.printfn@PLT
	.loc	1 93 10 is_stmt 1               # closure.c3:93:10
	movq	closure.closures.INIT_FAILED@GOTPCREL(%rip), %rax
	.loc	1 93 10 epilogue_begin is_stmt 0 # closure.c3:93:10
	addq	$64, %rsp
	popq	%rbp
	.cfi_def_cfa %rsp, 8
	retq
.LBB0_2:
	.cfi_def_cfa %rbp, 16
	xorl	%eax, %eax
                                        # kill: def $rax killed $eax
	.loc	1 93 10 epilogue_begin          # closure.c3:93:10
	addq	$64, %rsp
	popq	%rbp
	.cfi_def_cfa %rsp, 8
	retq
.Ltmp2:
.Lfunc_end0:
	.size	closure.closures.init, .Lfunc_end0-closure.closures.init
	.cfi_endproc
                                        # -- End function
	.globl	closure.closures.deinit         # -- Begin function closure.closures.deinit
	.p2align	4, 0x90
	.type	closure.closures.deinit,@function
closure.closures.deinit:                # @closure.closures.deinit
.Lfunc_begin1:
	.loc	1 107 0 is_stmt 1               # closure.c3:107:0
	.cfi_startproc
# %bb.0:
	pushq	%rbp
	.cfi_def_cfa_offset 16
	.cfi_offset %rbp, -16
	movq	%rsp, %rbp
	.cfi_def_cfa_register %rbp
.Ltmp3:
	.loc	1 109 16 prologue_end           # closure.c3:109:16
	movq	closures_data@GOTTPOFF(%rip), %rcx
	movq	%fs:0, %rax
	addq	%rcx, %rax
	movq	(%rax), %rdi
	.loc	1 109 31 is_stmt 0              # closure.c3:109:31
	movq	%fs:0, %rax
	leaq	closure.closures.allocated_size@TPOFF(%rax), %rax
	movq	(%rax), %rsi
	.loc	1 109 2                         # closure.c3:109:2
	callq	munmap@PLT
	.loc	1 110 2 is_stmt 1               # closure.c3:110:2
	movq	closures_data@GOTTPOFF(%rip), %rcx
	movq	%fs:0, %rax
	addq	%rcx, %rax
	.loc	1 110 18 is_stmt 0              # closure.c3:110:18
	movq	$0, (%rax)
	.loc	1 110 18 epilogue_begin         # closure.c3:110:18
	popq	%rbp
	.cfi_def_cfa %rsp, 8
	retq
.Ltmp4:
.Lfunc_end1:
	.size	closure.closures.deinit, .Lfunc_end1-closure.closures.deinit
	.cfi_endproc
                                        # -- End function
	.type	code_ptr,@object                # @code_ptr
	.section	.tbss,"awT",@nobits
	.globl	code_ptr
	.p2align	3, 0x0
code_ptr:
	.quad	0
	.size	code_ptr, 8

	.type	code_len,@object                # @code_len
	.globl	code_len
	.p2align	3, 0x0
code_len:
	.quad	0                               # 0x0
	.size	code_len, 8

	.type	code_offset,@object             # @code_offset
	.globl	code_offset
	.p2align	3, 0x0
code_offset:
	.quad	0                               # 0x0
	.size	code_offset, 8

	.type	code_arg_offset,@object         # @code_arg_offset
	.globl	code_arg_offset
	.p2align	3, 0x0
code_arg_offset:
	.quad	0                               # 0x0
	.size	code_arg_offset, 8

	.type	code_func_offset,@object        # @code_func_offset
	.globl	code_func_offset
	.p2align	3, 0x0
code_func_offset:
	.quad	0                               # 0x0
	.size	code_func_offset, 8

	.type	closure.closures.allocated_size,@object # @closure.closures.allocated_size
	.p2align	3, 0x0
closure.closures.allocated_size:
	.quad	0                               # 0x0
	.size	closure.closures.allocated_size, 8

	.type	closures_data,@object           # @closures_data
	.globl	closures_data
	.p2align	3, 0x0
closures_data:
	.quad	0
	.size	closures_data, 8

	.type	closure.closures.closure_count,@object # @closure.closures.closure_count
	.globl	closure.closures.closure_count
	.p2align	3, 0x0
closure.closures.closure_count:
	.quad	0                               # 0x0
	.size	closure.closures.closure_count, 8

	.type	.L.str,@object                  # @.str
	.section	.rodata.str1.1,"aMS",@progbits,1
.L.str:
	.asciz	"error: %s"
	.size	.L.str, 10

	.type	$ct.libc.Errno,@object          # @"$ct.libc.Errno"
	.section	".data.$ct.libc.Errno","awG",@progbits,"$ct.libc.Errno",comdat
	.weak	$ct.libc.Errno
	.p2align	3, 0x0
$ct.libc.Errno:
	.byte	18                              # 0x12
	.zero	7
	.quad	($ct.int)
	.quad	0
	.quad	4                               # 0x4
	.quad	($ct.int)
	.quad	0                               # 0x0
	.size	$ct.libc.Errno, 48

	.type	$ct.int,@object                 # @"$ct.int"
	.section	".data.$ct.int","awG",@progbits,"$ct.int",comdat
	.weak	$ct.int
	.p2align	3, 0x0
$ct.int:
	.byte	2                               # 0x2
	.zero	7
	.quad	0                               # 0x0
	.quad	0
	.quad	4                               # 0x4
	.quad	0                               # 0x0
	.quad	0                               # 0x0
	.size	$ct.int, 48

	.type	closure.closures.INIT_FAILED,@object # @closure.closures.INIT_FAILED
	.section	.data.rel.ro.closure.closures.INIT_FAILED,"awG",@progbits,closure.closures.INIT_FAILED,comdat
	.weak	closure.closures.INIT_FAILED
	.p2align	3, 0x0
closure.closures.INIT_FAILED:
	.quad	closure.closures.INIT_FAILED.nameof
	.quad	21                              # 0x15
	.size	closure.closures.INIT_FAILED, 16

	.type	closure.closures.INIT_FAILED.nameof,@object # @closure.closures.INIT_FAILED.nameof
	.section	.rodata,"a",@progbits
closure.closures.INIT_FAILED.nameof:
	.asciz	"closures::INIT_FAILED"
	.size	closure.closures.INIT_FAILED.nameof, 22

	.section	".note.GNU-stack","",@progbits