	.text
	.file	"libc"
	.file	1 "/nix/store/ihf6dmy4cll298qphlwhnmgml1y02khm-c3c-0.7.5/lib/c3/std/libc" "libc.c3"
	.section	.text.libc.errno,"axG",@progbits,libc.errno,comdat
	.weak	libc.errno                      # -- Begin function libc.errno
	.p2align	4, 0x90
	.type	libc.errno,@function
libc.errno:                             # @libc.errno
.Lfunc_begin0:
	.loc	1 42 0                          # libc.c3:42:0
	.cfi_startproc
# %bb.0:
	pushq	%rbp
	.cfi_def_cfa_offset 16
	.cfi_offset %rbp, -16
	movq	%rsp, %rbp
	.cfi_def_cfa_register %rbp
	subq	$112, %rsp
.Ltmp0:
	.file	2 "/nix/store/ihf6dmy4cll298qphlwhnmgml1y02khm-c3c-0.7.5/lib/c3/std/libc/os" "errno.c3"
	.loc	2 6 39 prologue_end             # errno.c3:6:39
	callq	__errno_location@PLT
	movq	%rax, -72(%rbp)                 # 8-byte Spill
	cmpq	$0, %rax
	sete	%al
	testb	$1, %al
	jne	.LBB0_3
# %bb.1:
	.loc	2 0 39 is_stmt 0                # errno.c3:0:39
	movq	-72(%rbp), %rax                 # 8-byte Reload
	.loc	2 6 39                          # errno.c3:6:39
	andq	$3, %rax
	movq	%rax, -80(%rbp)                 # 8-byte Spill
	cmpq	$0, %rax
	setne	%al
	testb	$1, %al
	jne	.LBB0_4
# %bb.2:
	.loc	2 0 39                          # errno.c3:0:39
	movq	-72(%rbp), %rax                 # 8-byte Reload
	.loc	2 6 39                          # errno.c3:6:39
	movl	(%rax), %eax
	.loc	2 6 39 epilogue_begin           # errno.c3:6:39
	addq	$112, %rsp
	popq	%rbp
	.cfi_def_cfa %rsp, 8
	retq
.LBB0_3:
	.cfi_def_cfa %rbp, 16
	leaq	.panic_msg(%rip), %rdi
	movl	$59, %esi
	leaq	.file(%rip), %rdx
	movl	$8, %ecx
	leaq	.func(%rip), %r8
	movl	$5, %r9d
	movq	std.core.builtin.panic@GOTPCREL(%rip), %rax
	movl	$6, (%rsp)
	callq	*(%rax)
.LBB0_4:
	.loc	2 0 39                          # errno.c3:0:39
	movq	-80(%rbp), %rcx                 # 8-byte Reload
	movq	$4, -8(%rbp)
	movq	($ct.ulong)@GOTPCREL(%rip), %rax
	movq	%rcx, -16(%rbp)
	movq	%rax, -40(%rbp)
	leaq	-8(%rbp), %rcx
	movq	%rcx, -48(%rbp)
	movq	%rax, -24(%rbp)
	leaq	-16(%rbp), %rax
	movq	%rax, -32(%rbp)
	leaq	-48(%rbp), %rax
	movq	%rax, -64(%rbp)
	movq	$2, -56(%rbp)
	.loc	2 6 39                          # errno.c3:6:39
	leaq	.panic_msg.1(%rip), %rdi
	movl	$94, %esi
	leaq	.file(%rip), %rdx
	movl	$8, %ecx
	leaq	.func(%rip), %r8
	movl	$5, %r9d
	leaq	-64(%rbp), %rax
	movl	$6, (%rsp)
	movq	(%rax), %r10
	movq	%r10, 8(%rsp)
	movq	8(%rax), %rax
	movq	%rax, 16(%rsp)
	callq	std.core.builtin.panicf@PLT
.Ltmp1:
.Lfunc_end0:
	.size	libc.errno, .Lfunc_end0-libc.errno
	.cfi_endproc
                                        # -- End function
	.type	$ct.libc.Errno,@object          # @"$ct.libc.Errno"
	.section	".data.$ct.libc.Errno","awG",@progbits,"$ct.libc.Errno",comdat
	.weak	$ct.libc.Errno
	.p2align	3, 0x0
$ct.libc.Errno:
	.byte	18                              # 0x12
	.zero	7
	.quad	($ct.int)
	.quad	0
	.quad	4                               # 0x4
	.quad	($ct.int)
	.quad	0                               # 0x0
	.size	$ct.libc.Errno, 48

	.type	$ct.int,@object                 # @"$ct.int"
	.section	".data.$ct.int","awG",@progbits,"$ct.int",comdat
	.weak	$ct.int
	.p2align	3, 0x0
$ct.int:
	.byte	2                               # 0x2
	.zero	7
	.quad	0                               # 0x0
	.quad	0
	.quad	4                               # 0x4
	.quad	0                               # 0x0
	.quad	0                               # 0x0
	.size	$ct.int, 48

	.type	.panic_msg,@object              # @.panic_msg
	.section	.rodata,"a",@progbits
.panic_msg:
	.asciz	"Dereference of null pointer, '__errno_location()' was null."
	.size	.panic_msg, 60

	.type	.file,@object                   # @.file
.file:
	.asciz	"errno.c3"
	.size	.file, 9

	.type	.func,@object                   # @.func
.func:
	.asciz	"errno"
	.size	.func, 6

	.type	$ct.ulong,@object               # @"$ct.ulong"
	.section	".data.$ct.ulong","awG",@progbits,"$ct.ulong",comdat
	.weak	$ct.ulong
	.p2align	3, 0x0
$ct.ulong:
	.byte	3                               # 0x3
	.zero	7
	.quad	0                               # 0x0
	.quad	0
	.quad	8                               # 0x8
	.quad	0                               # 0x0
	.quad	0                               # 0x0
	.size	$ct.ulong, 48

	.type	.panic_msg.1,@object            # @.panic_msg.1
	.section	.rodata,"a",@progbits
.panic_msg.1:
	.asciz	"Unaligned access: ptr %% %s = %s, use @unaligned_load / @unaligned_store for unaligned access."
	.size	.panic_msg.1, 95

	.section	".note.GNU-stack","",@progbits