	.text
	.file	"std::core::mem::vm"
	.file	1 "/nix/store/ihf6dmy4cll298qphlwhnmgml1y02khm-c3c-0.7.5/lib/c3/std/core/os" "mem_vm.c3"
	.section	.text.std.core.mem.vm.VirtualMemoryAccess.to_posix,"axG",@progbits,std.core.mem.vm.VirtualMemoryAccess.to_posix,comdat
	.weak	std.core.mem.vm.VirtualMemoryAccess.to_posix # -- Begin function std.core.mem.vm.VirtualMemoryAccess.to_posix
	.p2align	4, 0x90
	.type	std.core.mem.vm.VirtualMemoryAccess.to_posix,@function
std.core.mem.vm.VirtualMemoryAccess.to_posix: # @std.core.mem.vm.VirtualMemoryAccess.to_posix
.Lfunc_begin0:
	.loc	1 324 0                         # mem_vm.c3:324:0
	.cfi_startproc
# %bb.0:
	pushq	%rbp
	.cfi_def_cfa_offset 16
	.cfi_offset %rbp, -16
	movq	%rsp, %rbp
	.cfi_def_cfa_register %rbp
	movl	%edi, -4(%rbp)
	movl	-4(%rbp), %eax
	movl	%eax, -8(%rbp)
# %bb.1:
	movl	-8(%rbp), %eax
                                        # kill: def $rax killed $eax
	movq	%rax, -16(%rbp)                 # 8-byte Spill
# %bb.11:
	movq	-16(%rbp), %rax                 # 8-byte Reload
	leaq	.LJTI0_0(%rip), %rcx
	movslq	(%rcx,%rax,4), %rax
	addq	%rcx, %rax
	jmpq	*%rax
.LBB0_2:
.Ltmp0:
	.loc	1 328 26 prologue_end           # mem_vm.c3:328:26
	xorl	%eax, %eax
	.loc	1 328 26 epilogue_begin is_stmt 0 # mem_vm.c3:328:26
	popq	%rbp
	.cfi_def_cfa %rsp, 8
	retq
.Ltmp1:
.LBB0_3:
	.cfi_def_cfa %rbp, 16
	.loc	1 329 21 is_stmt 1              # mem_vm.c3:329:21
	movl	$1, %eax
	.loc	1 329 21 epilogue_begin is_stmt 0 # mem_vm.c3:329:21
	popq	%rbp
	.cfi_def_cfa %rsp, 8
	retq
.Ltmp2:
.LBB0_4:
	.cfi_def_cfa %rbp, 16
	.loc	1 330 22 is_stmt 1              # mem_vm.c3:330:22
	movl	$2, %eax
	.loc	1 330 22 epilogue_begin is_stmt 0 # mem_vm.c3:330:22
	popq	%rbp
	.cfi_def_cfa %rsp, 8
	retq
.Ltmp3:
.LBB0_5:
	.cfi_def_cfa %rbp, 16
	.loc	1 331 21 is_stmt 1              # mem_vm.c3:331:21
	movl	$4, %eax
	.loc	1 331 21 epilogue_begin is_stmt 0 # mem_vm.c3:331:21
	popq	%rbp
	.cfi_def_cfa %rsp, 8
	retq
.Ltmp4:
.LBB0_6:
	.cfi_def_cfa %rbp, 16
	.loc	1 332 26 is_stmt 1              # mem_vm.c3:332:26
	movl	$3, %eax
	.loc	1 332 26 epilogue_begin is_stmt 0 # mem_vm.c3:332:26
	popq	%rbp
	.cfi_def_cfa %rsp, 8
	retq
.Ltmp5:
.LBB0_7:
	.cfi_def_cfa %rbp, 16
	.loc	1 333 25 is_stmt 1              # mem_vm.c3:333:25
	movl	$5, %eax
	.loc	1 333 25 epilogue_begin is_stmt 0 # mem_vm.c3:333:25
	popq	%rbp
	.cfi_def_cfa %rsp, 8
	retq
.Ltmp6:
.LBB0_8:
	.cfi_def_cfa %rbp, 16
	.loc	1 334 26 is_stmt 1              # mem_vm.c3:334:26
	movl	$6, %eax
	.loc	1 334 26 epilogue_begin is_stmt 0 # mem_vm.c3:334:26
	popq	%rbp
	.cfi_def_cfa %rsp, 8
	retq
.Ltmp7:
.LBB0_9:
	.cfi_def_cfa %rbp, 16
	.loc	1 335 20 is_stmt 1              # mem_vm.c3:335:20
	movl	$7, %eax
	.loc	1 335 20 epilogue_begin is_stmt 0 # mem_vm.c3:335:20
	popq	%rbp
	.cfi_def_cfa %rsp, 8
	retq
.Ltmp8:
# %bb.10:
.Lfunc_end0:
	.size	std.core.mem.vm.VirtualMemoryAccess.to_posix, .Lfunc_end0-std.core.mem.vm.VirtualMemoryAccess.to_posix
	.cfi_endproc
	.section	.rodata.std.core.mem.vm.VirtualMemoryAccess.to_posix,"aG",@progbits,std.core.mem.vm.VirtualMemoryAccess.to_posix,comdat
	.p2align	2, 0x0
.LJTI0_0:
	.long	.LBB0_2-.LJTI0_0
	.long	.LBB0_3-.LJTI0_0
	.long	.LBB0_4-.LJTI0_0
	.long	.LBB0_6-.LJTI0_0
	.long	.LBB0_5-.LJTI0_0
	.long	.LBB0_7-.LJTI0_0
	.long	.LBB0_8-.LJTI0_0
	.long	.LBB0_9-.LJTI0_0
                                        # -- End function
	.section	.text.std.core.mem.vm.aligned_alloc_size,"axG",@progbits,std.core.mem.vm.aligned_alloc_size,comdat
	.weak	std.core.mem.vm.aligned_alloc_size # -- Begin function std.core.mem.vm.aligned_alloc_size
	.p2align	4, 0x90
	.type	std.core.mem.vm.aligned_alloc_size,@function
std.core.mem.vm.aligned_alloc_size:     # @std.core.mem.vm.aligned_alloc_size
.Lfunc_begin1:
	.loc	1 32 0 is_stmt 1                # mem_vm.c3:32:0
	.cfi_startproc
# %bb.0:
	pushq	%rbp
	.cfi_def_cfa_offset 16
	.cfi_offset %rbp, -16
	movq	%rsp, %rbp
	.cfi_def_cfa_register %rbp
	subq	$64, %rsp
	movq	%rdi, -8(%rbp)
.Ltmp9:
	.loc	1 37 10 prologue_end            # mem_vm.c3:37:10
	xorl	%eax, %eax
                                        # kill: def $rax killed $eax
	cmpq	-8(%rbp), %rax
	jae	.LBB1_6
# %bb.1:
	.loc	1 37 41 is_stmt 0               # mem_vm.c3:37:41
	movq	-8(%rbp), %rax
	movq	%rax, -40(%rbp)                 # 8-byte Spill
	.loc	1 37 47                         # mem_vm.c3:37:47
	callq	std.core.mem.os_pagesize@PLT
	movq	%rax, -32(%rbp)                 # 8-byte Spill
	movq	%rax, -16(%rbp)
.Ltmp10:
	.file	2 "/nix/store/ihf6dmy4cll298qphlwhnmgml1y02khm-c3c-0.7.5/lib/c3/std/math" "math.c3"
	.loc	2 992 9 is_stmt 1               # math.c3:992:9
	xorl	%eax, %eax
                                        # kill: def $al killed $al killed $eax
	xorl	%ecx, %ecx
                                        # kill: def $rcx killed $ecx
	cmpq	-16(%rbp), %rcx
	movb	%al, -17(%rbp)                  # 1-byte Spill
	je	.LBB1_3
# %bb.2:
	.loc	2 992 20 is_stmt 0              # math.c3:992:20
	movq	-16(%rbp), %rax
	.loc	2 992 25                        # math.c3:992:25
	movq	-16(%rbp), %rcx
	subq	$1, %rcx
	.loc	2 992 20                        # math.c3:992:20
	andq	%rcx, %rax
	.loc	2 992 19                        # math.c3:992:19
	cmpq	$0, %rax
	sete	%al
	movb	%al, -17(%rbp)                  # 1-byte Spill
.LBB1_3:
	.loc	2 0 19                          # math.c3:0:19
	movb	-17(%rbp), %al                  # 1-byte Reload
	.loc	2 992 19                        # math.c3:992:19
	testb	$1, %al
	jne	.LBB1_5
.Ltmp11:
# %bb.4:
	.loc	1 37 21 is_stmt 1               # mem_vm.c3:37:21
	leaq	.panic_msg(%rip), %rdi
	movl	$51, %esi
	leaq	.file(%rip), %rdx
	movl	$9, %ecx
	leaq	.func(%rip), %r8
	movl	$18, %r9d
	movq	std.core.builtin.panic@GOTPCREL(%rip), %rax
	movl	$37, (%rsp)
	callq	*(%rax)
.LBB1_5:
	.loc	1 0 21 is_stmt 0                # mem_vm.c3:0:21
	movq	-32(%rbp), %rsi                 # 8-byte Reload
	movq	-40(%rbp), %rdi                 # 8-byte Reload
	.loc	1 37 21                         # mem_vm.c3:37:21
	callq	std.core.mem.aligned_offset@PLT
	movq	%rax, -48(%rbp)                 # 8-byte Spill
	jmp	.LBB1_7
.LBB1_6:
	.loc	1 37 69                         # mem_vm.c3:37:69
	callq	std.core.mem.os_pagesize@PLT
	movq	%rax, -48(%rbp)                 # 8-byte Spill
.LBB1_7:
	.loc	1 0 69                          # mem_vm.c3:0:69
	movq	-48(%rbp), %rax                 # 8-byte Reload
	.loc	1 37 69 epilogue_begin          # mem_vm.c3:37:69
	addq	$64, %rsp
	popq	%rbp
	.cfi_def_cfa %rsp, 8
	retq
.Ltmp12:
.Lfunc_end1:
	.size	std.core.mem.vm.aligned_alloc_size, .Lfunc_end1-std.core.mem.vm.aligned_alloc_size
	.cfi_endproc
                                        # -- End function
	.type	.enum.PROTECTED,@object         # @.enum.PROTECTED
	.section	.rodata,"a",@progbits
.enum.PROTECTED:
	.asciz	"PROTECTED"
	.size	.enum.PROTECTED, 10

	.type	.enum.READ,@object              # @.enum.READ
.enum.READ:
	.asciz	"READ"
	.size	.enum.READ, 5

	.type	.enum.WRITE,@object             # @.enum.WRITE
.enum.WRITE:
	.asciz	"WRITE"
	.size	.enum.WRITE, 6

	.type	.enum.READWRITE,@object         # @.enum.READWRITE
.enum.READWRITE:
	.asciz	"READWRITE"
	.size	.enum.READWRITE, 10

	.type	.enum.EXEC,@object              # @.enum.EXEC
.enum.EXEC:
	.asciz	"EXEC"
	.size	.enum.EXEC, 5

	.type	.enum.EXECREAD,@object          # @.enum.EXECREAD
.enum.EXECREAD:
	.asciz	"EXECREAD"
	.size	.enum.EXECREAD, 9

	.type	.enum.EXECWRITE,@object         # @.enum.EXECWRITE
.enum.EXECWRITE:
	.asciz	"EXECWRITE"
	.size	.enum.EXECWRITE, 10

	.type	.enum.ANY,@object               # @.enum.ANY
.enum.ANY:
	.asciz	"ANY"
	.size	.enum.ANY, 4

	.type	$ct.int,@object                 # @"$ct.int"
	.section	".data.$ct.int","awG",@progbits,"$ct.int",comdat
	.weak	$ct.int
	.p2align	3, 0x0
$ct.int:
	.byte	2                               # 0x2
	.zero	7
	.quad	0                               # 0x0
	.quad	0
	.quad	4                               # 0x4
	.quad	0                               # 0x0
	.quad	0                               # 0x0
	.size	$ct.int, 48

	.type	$ct.std.core.mem.vm.VirtualMemoryAccess,@object # @"$ct.std.core.mem.vm.VirtualMemoryAccess"
	.section	".data.$ct.std.core.mem.vm.VirtualMemoryAccess","awG",@progbits,"$ct.std.core.mem.vm.VirtualMemoryAccess",comdat
	.weak	$ct.std.core.mem.vm.VirtualMemoryAccess
	.p2align	3, 0x0
$ct.std.core.mem.vm.VirtualMemoryAccess:
	.byte	8                               # 0x8
	.zero	7
	.quad	0                               # 0x0
	.quad	0
	.quad	4                               # 0x4
	.quad	($ct.int)
	.quad	8                               # 0x8
	.quad	.enum.PROTECTED
	.quad	9                               # 0x9
	.quad	.enum.READ
	.quad	4                               # 0x4
	.quad	.enum.WRITE
	.quad	5                               # 0x5
	.quad	.enum.READWRITE
	.quad	9                               # 0x9
	.quad	.enum.EXEC
	.quad	4                               # 0x4
	.quad	.enum.EXECREAD
	.quad	8                               # 0x8
	.quad	.enum.EXECWRITE
	.quad	9                               # 0x9
	.quad	.enum.ANY
	.quad	3                               # 0x3
	.size	$ct.std.core.mem.vm.VirtualMemoryAccess, 176

	.type	.panic_msg,@object              # @.panic_msg
	.section	.rodata,"a",@progbits
.panic_msg:
	.asciz	"@require \"math::is_power_of_2(alignment)\" violated."
	.size	.panic_msg, 52

	.type	.file,@object                   # @.file
.file:
	.asciz	"mem_vm.c3"
	.size	.file, 10

	.type	.func,@object                   # @.func
.func:
	.asciz	"aligned_alloc_size"
	.size	.func, 19

	.section	".note.GNU-stack","",@progbits