	.text
	.file	"std::core::mem"
	.file	1 "/nix/store/ihf6dmy4cll298qphlwhnmgml1y02khm-c3c-0.7.5/lib/c3/std/core" "mem.c3"
	.section	.text.std.core.mem.os_pagesize,"axG",@progbits,std.core.mem.os_pagesize,comdat
	.weak	std.core.mem.os_pagesize        # -- Begin function std.core.mem.os_pagesize
	.p2align	4, 0x90
	.type	std.core.mem.os_pagesize,@function
std.core.mem.os_pagesize:               # @std.core.mem.os_pagesize
.Lfunc_begin0:
	.loc	1 23 0                          # mem.c3:23:0
	.cfi_startproc
# %bb.0:
	pushq	%rbp
	.cfi_def_cfa_offset 16
	.cfi_offset %rbp, -16
	movq	%rsp, %rbp
	.cfi_def_cfa_register %rbp
.Ltmp0:
	.loc	1 28 8 prologue_end             # mem.c3:28:8
	cmpq	$0, os_pagesize.pagesize(%rip)
	je	.LBB0_2
# %bb.1:
	.loc	1 28 25 is_stmt 0               # mem.c3:28:25
	movq	os_pagesize.pagesize(%rip), %rax
	.loc	1 28 25 epilogue_begin          # mem.c3:28:25
	popq	%rbp
	.cfi_def_cfa %rsp, 8
	retq
.LBB0_2:
	.cfi_def_cfa %rbp, 16
	.loc	1 29 22 is_stmt 1               # mem.c3:29:22
	callq	getpagesize@PLT
	cltq
	movq	%rax, os_pagesize.pagesize(%rip)
	.loc	1 29 22 epilogue_begin is_stmt 0 # mem.c3:29:22
	popq	%rbp
	.cfi_def_cfa %rsp, 8
	retq
.Ltmp1:
.Lfunc_end0:
	.size	std.core.mem.os_pagesize, .Lfunc_end0-std.core.mem.os_pagesize
	.cfi_endproc
                                        # -- End function
	.section	.text.std.core.mem.aligned_offset,"axG",@progbits,std.core.mem.aligned_offset,comdat
	.weak	std.core.mem.aligned_offset     # -- Begin function std.core.mem.aligned_offset
	.p2align	4, 0x90
	.type	std.core.mem.aligned_offset,@function
std.core.mem.aligned_offset:            # @std.core.mem.aligned_offset
.Lfunc_begin1:
	.loc	1 306 0 is_stmt 1               # mem.c3:306:0
	.cfi_startproc
# %bb.0:
	pushq	%rbp
	.cfi_def_cfa_offset 16
	.cfi_offset %rbp, -16
	movq	%rsp, %rbp
	.cfi_def_cfa_register %rbp
	subq	$48, %rsp
	movq	%rdi, -8(%rbp)
	movq	%rsi, -16(%rbp)
	movq	-16(%rbp), %rax
	movq	%rax, -24(%rbp)
.Ltmp2:
	.file	2 "/nix/store/ihf6dmy4cll298qphlwhnmgml1y02khm-c3c-0.7.5/lib/c3/std/math" "math.c3"
	.loc	2 992 9 prologue_end            # math.c3:992:9
	xorl	%eax, %eax
                                        # kill: def $al killed $al killed $eax
	xorl	%ecx, %ecx
                                        # kill: def $rcx killed $ecx
	cmpq	-24(%rbp), %rcx
	movb	%al, -25(%rbp)                  # 1-byte Spill
	je	.LBB1_2
# %bb.1:
	.loc	2 992 20 is_stmt 0              # math.c3:992:20
	movq	-24(%rbp), %rax
	.loc	2 992 25                        # math.c3:992:25
	movq	-24(%rbp), %rcx
	subq	$1, %rcx
	.loc	2 992 20                        # math.c3:992:20
	andq	%rcx, %rax
	.loc	2 992 19                        # math.c3:992:19
	cmpq	$0, %rax
	sete	%al
	movb	%al, -25(%rbp)                  # 1-byte Spill
.LBB1_2:
	.loc	2 0 19                          # math.c3:0:19
	movb	-25(%rbp), %al                  # 1-byte Reload
	.loc	2 992 19                        # math.c3:992:19
	testb	$1, %al
	jne	.LBB1_4
.Ltmp3:
# %bb.3:
	.loc	1 304 11 is_stmt 1              # mem.c3:304:11
	leaq	.panic_msg(%rip), %rdi
	movl	$51, %esi
	leaq	.file(%rip), %rdx
	movl	$6, %ecx
	leaq	.func(%rip), %r8
	movl	$14, %r9d
	movq	std.core.builtin.panic@GOTPCREL(%rip), %rax
	movl	$304, (%rsp)                    # imm = 0x130
	callq	*(%rax)
.Ltmp4:
.LBB1_4:
	.loc	1 308 10                        # mem.c3:308:10
	movq	-8(%rbp), %rax
	addq	-16(%rbp), %rax
	subq	$1, %rax
	.loc	1 308 38 is_stmt 0              # mem.c3:308:38
	movq	-16(%rbp), %rcx
	subq	$1, %rcx
	xorq	$-1, %rcx
	.loc	1 308 9                         # mem.c3:308:9
	andq	%rcx, %rax
	.loc	1 308 9 epilogue_begin          # mem.c3:308:9
	addq	$48, %rsp
	popq	%rbp
	.cfi_def_cfa %rsp, 8
	retq
.Ltmp5:
.Lfunc_end1:
	.size	std.core.mem.aligned_offset, .Lfunc_end1-std.core.mem.aligned_offset
	.cfi_endproc
                                        # -- End function
	.section	.text.std.core.mem.ptr_is_aligned,"axG",@progbits,std.core.mem.ptr_is_aligned,comdat
	.weak	std.core.mem.ptr_is_aligned     # -- Begin function std.core.mem.ptr_is_aligned
	.p2align	4, 0x90
	.type	std.core.mem.ptr_is_aligned,@function
std.core.mem.ptr_is_aligned:            # @std.core.mem.ptr_is_aligned
.Lfunc_begin2:
	.loc	1 319 0 is_stmt 1               # mem.c3:319:0
	.cfi_startproc
# %bb.0:
	pushq	%rbp
	.cfi_def_cfa_offset 16
	.cfi_offset %rbp, -16
	movq	%rsp, %rbp
	.cfi_def_cfa_register %rbp
	subq	$48, %rsp
	movq	%rdi, -8(%rbp)
	movq	%rsi, -16(%rbp)
	movq	-16(%rbp), %rax
	movq	%rax, -24(%rbp)
.Ltmp6:
	.loc	2 992 9 prologue_end            # math.c3:992:9
	xorl	%eax, %eax
                                        # kill: def $al killed $al killed $eax
	xorl	%ecx, %ecx
                                        # kill: def $rcx killed $ecx
	cmpq	-24(%rbp), %rcx
	movb	%al, -25(%rbp)                  # 1-byte Spill
	je	.LBB2_2
# %bb.1:
	.loc	2 992 20 is_stmt 0              # math.c3:992:20
	movq	-24(%rbp), %rax
	.loc	2 992 25                        # math.c3:992:25
	movq	-24(%rbp), %rcx
	subq	$1, %rcx
	.loc	2 992 20                        # math.c3:992:20
	andq	%rcx, %rax
	.loc	2 992 19                        # math.c3:992:19
	cmpq	$0, %rax
	sete	%al
	movb	%al, -25(%rbp)                  # 1-byte Spill
.LBB2_2:
	.loc	2 0 19                          # math.c3:0:19
	movb	-25(%rbp), %al                  # 1-byte Reload
	.loc	2 992 19                        # math.c3:992:19
	testb	$1, %al
	jne	.LBB2_4
.Ltmp7:
# %bb.3:
	.loc	1 317 11 is_stmt 1              # mem.c3:317:11
	leaq	.panic_msg(%rip), %rdi
	movl	$51, %esi
	leaq	.file(%rip), %rdx
	movl	$6, %ecx
	leaq	.func.1(%rip), %r8
	movl	$14, %r9d
	movq	std.core.builtin.panic@GOTPCREL(%rip), %rax
	movl	$317, (%rsp)                    # imm = 0x13D
	callq	*(%rax)
.Ltmp8:
.LBB2_4:
	.loc	1 321 9                         # mem.c3:321:9
	movq	-8(%rbp), %rax
	.loc	1 321 22 is_stmt 0              # mem.c3:321:22
	movq	-16(%rbp), %rcx
	subq	$1, %rcx
	.loc	1 321 9                         # mem.c3:321:9
	andq	%rcx, %rax
	cmpq	$0, %rax
	sete	%al
	andb	$1, %al
	.loc	1 321 9 epilogue_begin          # mem.c3:321:9
	addq	$48, %rsp
	popq	%rbp
	.cfi_def_cfa %rsp, 8
	retq
.Ltmp9:
.Lfunc_end2:
	.size	std.core.mem.ptr_is_aligned, .Lfunc_end2-std.core.mem.ptr_is_aligned
	.cfi_endproc
                                        # -- End function
	.section	.text.std.core.mem.free,"axG",@progbits,std.core.mem.free,comdat
	.weak	std.core.mem.free               # -- Begin function std.core.mem.free
	.p2align	4, 0x90
	.type	std.core.mem.free,@function
std.core.mem.free:                      # @std.core.mem.free
.Lfunc_begin3:
	.loc	1 929 0 is_stmt 1               # mem.c3:929:0
	.cfi_startproc
# %bb.0:
	pushq	%rbp
	.cfi_def_cfa_offset 16
	.cfi_offset %rbp, -16
	movq	%rsp, %rbp
	.cfi_def_cfa_register %rbp
	subq	$96, %rsp
	movq	$0, -48(%rbp)
	movq	%rdi, -8(%rbp)
.Ltmp10:
	.loc	1 931 25 prologue_end           # mem.c3:931:25
	movq	std.core.mem.allocator.thread_allocator@GOTTPOFF(%rip), %rcx
	movq	%fs:0, %rax
	addq	%rcx, %rax
	movq	(%rax), %rcx
	movq	%rcx, -24(%rbp)
	movq	8(%rax), %rax
	movq	%rax, -16(%rbp)
	movq	-8(%rbp), %rax
	movq	%rax, -32(%rbp)
.Ltmp11:
	.file	3 "/nix/store/ihf6dmy4cll298qphlwhnmgml1y02khm-c3c-0.7.5/lib/c3/std/core" "mem_allocator.c3"
	.loc	3 119 6                         # mem_allocator.c3:119:6
	cmpq	$0, -32(%rbp)
	jne	.LBB3_2
# %bb.1:
	.loc	3 119 18 is_stmt 0              # mem_allocator.c3:119:18
	jmp	.LBB3_10
.LBB3_2:
	.loc	3 123 20 is_stmt 1              # mem_allocator.c3:123:20
	movq	-32(%rbp), %rax
	movq	%rax, -56(%rbp)                 # 8-byte Spill
	.loc	3 123 2 is_stmt 0               # mem_allocator.c3:123:2
	cmpq	$0, %rax
	jne	.LBB3_4
# %bb.3:
	leaq	.panic_msg.2(%rip), %rdi
	movl	$75, %esi
	leaq	.file.3(%rip), %rdx
	movl	$16, %ecx
	leaq	.func.4(%rip), %r8
	movl	$4, %r9d
	movq	std.core.builtin.panic@GOTPCREL(%rip), %rax
	movl	$123, (%rsp)
	callq	*(%rax)
.LBB3_4:
	movq	-16(%rbp), %rax
	movq	%rax, -64(%rbp)                 # 8-byte Spill
	cmpq	-48(%rbp), %rax
	je	.LBB3_6
# %bb.5:
	.loc	3 0 2                           # mem_allocator.c3:0:2
	movq	-64(%rbp), %rax                 # 8-byte Reload
	movq	16(%rax), %rdi
	movq	($sel.release)@GOTPCREL(%rip), %rsi
	callq	.dyn_search@PLT
	movq	-64(%rbp), %rcx                 # 8-byte Reload
	movq	%rax, -40(%rbp)
	movq	%rcx, -48(%rbp)
	movq	%rax, -72(%rbp)                 # 8-byte Spill
	jmp	.LBB3_7
.LBB3_6:
	movq	-40(%rbp), %rax
	movq	%rax, -72(%rbp)                 # 8-byte Spill
.LBB3_7:
	movq	-72(%rbp), %rax                 # 8-byte Reload
	movq	%rax, -80(%rbp)                 # 8-byte Spill
	cmpq	$0, %rax
	jne	.LBB3_9
# %bb.8:
	.loc	3 123 2                         # mem_allocator.c3:123:2
	leaq	.panic_msg.5(%rip), %rdi
	movl	$44, %esi
	leaq	.file.3(%rip), %rdx
	movl	$16, %ecx
	leaq	.func.4(%rip), %r8
	movl	$4, %r9d
	movq	std.core.builtin.panic@GOTPCREL(%rip), %rax
	movl	$123, (%rsp)
	callq	*(%rax)
.LBB3_9:
	.loc	3 0 2                           # mem_allocator.c3:0:2
	movq	-80(%rbp), %rax                 # 8-byte Reload
	movq	-56(%rbp), %rsi                 # 8-byte Reload
	.loc	3 123 2                         # mem_allocator.c3:123:2
	movq	-24(%rbp), %rdi
	xorl	%edx, %edx
	callq	*%rax
.LBB3_10:
	.loc	3 123 2 epilogue_begin          # mem_allocator.c3:123:2
	addq	$96, %rsp
	popq	%rbp
	.cfi_def_cfa %rsp, 8
	retq
.Ltmp12:
.Lfunc_end3:
	.size	std.core.mem.free, .Lfunc_end3-std.core.mem.free
	.cfi_endproc
                                        # -- End function
	.section	.text..dyn_search,"axG",@progbits,.dyn_search,comdat
	.weak	.dyn_search                     # -- Begin function .dyn_search
	.p2align	4, 0x90
	.type	.dyn_search,@function
.dyn_search:                            # @.dyn_search
.Lfunc_begin4:
	.cfi_startproc
# %bb.0:
	movq	%rsi, -16(%rsp)                 # 8-byte Spill
	movq	%rdi, -8(%rsp)                  # 8-byte Spill
	jmp	.LBB4_1
.LBB4_1:                                # =>This Inner Loop Header: Depth=1
	movq	-8(%rsp), %rax                  # 8-byte Reload
	movq	%rax, -24(%rsp)                 # 8-byte Spill
	cmpq	$0, %rax
	jne	.LBB4_3
# %bb.2:
	xorl	%eax, %eax
                                        # kill: def $rax killed $eax
	retq
.LBB4_3:                                #   in Loop: Header=BB4_1 Depth=1
	movq	-24(%rsp), %rax                 # 8-byte Reload
	movq	-16(%rsp), %rcx                 # 8-byte Reload
	cmpq	%rcx, 8(%rax)
	jne	.LBB4_5
# %bb.4:
	movq	-24(%rsp), %rax                 # 8-byte Reload
	movq	(%rax), %rax
	retq
.LBB4_5:                                #   in Loop: Header=BB4_1 Depth=1
	movq	-24(%rsp), %rax                 # 8-byte Reload
	movq	16(%rax), %rax
	movq	%rax, -8(%rsp)                  # 8-byte Spill
	jmp	.LBB4_1
.Lfunc_end4:
	.size	.dyn_search, .Lfunc_end4-.dyn_search
	.cfi_endproc
                                        # -- End function
	.type	os_pagesize.pagesize,@object    # @os_pagesize.pagesize
	.local	os_pagesize.pagesize
	.comm	os_pagesize.pagesize,8,8
	.type	.panic_msg,@object              # @.panic_msg
	.section	.rodata,"a",@progbits
.panic_msg:
	.asciz	"@require \"math::is_power_of_2(alignment)\" violated."
	.size	.panic_msg, 52

	.type	.file,@object                   # @.file
.file:
	.asciz	"mem.c3"
	.size	.file, 7

	.type	.func,@object                   # @.func
.func:
	.asciz	"aligned_offset"
	.size	.func, 15

	.type	.func.1,@object                 # @.func.1
.func.1:
	.asciz	"ptr_is_aligned"
	.size	.func.1, 15

	.type	$sel.release,@object            # @"$sel.release"
	.section	".rodata.$sel.release","aG",@progbits,"$sel.release",comdat
	.weak	$sel.release
$sel.release:
	.asciz	"release"
	.size	$sel.release, 8

	.type	.panic_msg.2,@object            # @.panic_msg.2
	.section	.rodata,"a",@progbits
.panic_msg.2:
	.asciz	"@require \"ptr != null\" violated: 'Empty pointers should never be released'."
	.size	.panic_msg.2, 76

	.type	.file.3,@object                 # @.file.3
.file.3:
	.asciz	"mem_allocator.c3"
	.size	.file.3, 17

	.type	.func.4,@object                 # @.func.4
.func.4:
	.asciz	"free"
	.size	.func.4, 5

	.type	.panic_msg.5,@object            # @.panic_msg.5
.panic_msg.5:
	.asciz	"No method 'release' could be found on target"
	.size	.panic_msg.5, 45

	.section	".note.GNU-stack","",@progbits