	.text
	.file	"std::core::string::conv"
	.section	.text.std.core.string.conv.utf8_codepoints,"axG",@progbits,std.core.string.conv.utf8_codepoints,comdat
	.weak	std.core.string.conv.utf8_codepoints # -- Begin function std.core.string.conv.utf8_codepoints
	.p2align	4, 0x90
	.type	std.core.string.conv.utf8_codepoints,@function
std.core.string.conv.utf8_codepoints:   # @std.core.string.conv.utf8_codepoints
.Lfunc_begin0:
	.file	1 "/nix/store/ihf6dmy4cll298qphlwhnmgml1y02khm-c3c-0.7.5/lib/c3/std/core" "conv.c3"
	.loc	1 192 0                         # conv.c3:192:0
	.cfi_startproc
# %bb.0:
	pushq	%rbp
	.cfi_def_cfa_offset 16
	.cfi_offset %rbp, -16
	movq	%rsp, %rbp
	.cfi_def_cfa_register %rbp
	subq	$176, %rsp
	movq	%rdi, -16(%rbp)
	movq	%rsi, -8(%rbp)
.Ltmp0:
	.loc	1 194 12 prologue_end           # conv.c3:194:12
	movq	$0, -24(%rbp)
.Ltmp1:
	.loc	1 195 20                        # conv.c3:195:20
	movq	-8(%rbp), %rax
	movq	%rax, -120(%rbp)                # 8-byte Spill
	movq	$0, -32(%rbp)
.LBB0_1:                                # =>This Inner Loop Header: Depth=1
	.loc	1 0 20 is_stmt 0                # conv.c3:0:20
	movq	-120(%rbp), %rax                # 8-byte Reload
	.loc	1 195 20                        # conv.c3:195:20
	cmpq	%rax, -32(%rbp)
	jae	.LBB0_6
# %bb.2:                                #   in Loop: Header=BB0_1 Depth=1
.Ltmp2:
	.loc	1 195 20                        # conv.c3:195:20
	movq	-8(%rbp), %rcx
	movq	%rcx, -144(%rbp)                # 8-byte Spill
	movq	-16(%rbp), %rax
	movq	%rax, -136(%rbp)                # 8-byte Spill
	movq	-32(%rbp), %rax
	movq	%rax, -128(%rbp)                # 8-byte Spill
	cmpq	%rcx, %rax
	setae	%al
	testb	$1, %al
	jne	.LBB0_7
# %bb.3:                                #   in Loop: Header=BB0_1 Depth=1
	.loc	1 0 20                          # conv.c3:0:20
	movq	-136(%rbp), %rax                # 8-byte Reload
	movq	-128(%rbp), %rcx                # 8-byte Reload
	.loc	1 195 20                        # conv.c3:195:20
	movb	(%rax,%rcx), %al
	movb	%al, -33(%rbp)
.Ltmp3:
	.loc	1 197 7 is_stmt 1               # conv.c3:197:7
	movzbl	-33(%rbp), %eax
	andl	$192, %eax
	cmpl	$128, %eax
	je	.LBB0_5
# %bb.4:                                #   in Loop: Header=BB0_1 Depth=1
	.loc	1 197 25 is_stmt 0              # conv.c3:197:25
	movq	-24(%rbp), %rax
	addq	$1, %rax
	movq	%rax, -24(%rbp)
.Ltmp4:
.LBB0_5:                                #   in Loop: Header=BB0_1 Depth=1
	.loc	1 195 20 is_stmt 1              # conv.c3:195:20
	movq	-32(%rbp), %rax
	addq	$1, %rax
	movq	%rax, -32(%rbp)
	jmp	.LBB0_1
.Ltmp5:
.LBB0_6:
	.loc	1 199 9                         # conv.c3:199:9
	movq	-24(%rbp), %rax
	.loc	1 199 9 epilogue_begin is_stmt 0 # conv.c3:199:9
	addq	$176, %rsp
	popq	%rbp
	.cfi_def_cfa %rsp, 8
	retq
.LBB0_7:
	.cfi_def_cfa %rbp, 16
	.loc	1 0 9                           # conv.c3:0:9
	movq	-128(%rbp), %rcx                # 8-byte Reload
	movq	-144(%rbp), %rax                # 8-byte Reload
	movq	%rax, -48(%rbp)
	movq	($ct.ulong)@GOTPCREL(%rip), %rax
	movq	%rcx, -56(%rbp)
	movq	%rax, -88(%rbp)
	leaq	-48(%rbp), %rcx
	movq	%rcx, -96(%rbp)
	movq	%rax, -72(%rbp)
	leaq	-56(%rbp), %rax
	movq	%rax, -80(%rbp)
	leaq	-96(%rbp), %rax
	movq	%rax, -112(%rbp)
	movq	$2, -104(%rbp)
.Ltmp6:
	.loc	1 195 20 is_stmt 1              # conv.c3:195:20
	leaq	.panic_msg(%rip), %rdi
	movl	$59, %esi
	leaq	.file(%rip), %rdx
	movl	$7, %ecx
	leaq	.func(%rip), %r8
	movl	$15, %r9d
	leaq	-112(%rbp), %rax
	movl	$195, (%rsp)
	movq	(%rax), %r10
	movq	%r10, 8(%rsp)
	movq	8(%rax), %rax
	movq	%rax, 16(%rsp)
	callq	std.core.builtin.panicf@PLT
.Ltmp7:
.Lfunc_end0:
	.size	std.core.string.conv.utf8_codepoints, .Lfunc_end0-std.core.string.conv.utf8_codepoints
	.cfi_endproc
                                        # -- End function
	.type	$ct.ulong,@object               # @"$ct.ulong"
	.section	".data.$ct.ulong","awG",@progbits,"$ct.ulong",comdat
	.weak	$ct.ulong
	.p2align	3, 0x0
$ct.ulong:
	.byte	3                               # 0x3
	.zero	7
	.quad	0                               # 0x0
	.quad	0
	.quad	8                               # 0x8
	.quad	0                               # 0x0
	.quad	0                               # 0x0
	.size	$ct.ulong, 48

	.type	.panic_msg,@object              # @.panic_msg
	.section	.rodata,"a",@progbits
.panic_msg:
	.asciz	"Array index out of bounds (array had size %d, index was %d)"
	.size	.panic_msg, 60

	.type	.file,@object                   # @.file
.file:
	.asciz	"conv.c3"
	.size	.file, 8

	.type	.func,@object                   # @.func
.func:
	.asciz	"utf8_codepoints"
	.size	.func, 16

	.section	".note.GNU-stack","",@progbits