	.text
	.file	"std::io::os"
	.file	1 "/nix/store/ihf6dmy4cll298qphlwhnmgml1y02khm-c3c-0.7.5/lib/c3/std/io/os" "file_libc.c3"
	.section	.text.std.io.os.native_fopen,"axG",@progbits,std.io.os.native_fopen,comdat
	.weak	std.io.os.native_fopen          # -- Begin function std.io.os.native_fopen
	.p2align	4, 0x90
	.type	std.io.os.native_fopen,@function
std.io.os.native_fopen:                 # @std.io.os.native_fopen
.Lfunc_begin0:
	.loc	1 8 0                           # file_libc.c3:8:0
	.cfi_startproc
# %bb.0:
	pushq	%rbp
	.cfi_def_cfa_offset 16
	.cfi_offset %rbp, -16
	movq	%rsp, %rbp
	.cfi_def_cfa_register %rbp
	subq	$128, %rsp
	movq	%rdi, -88(%rbp)                 # 8-byte Spill
	movq	%rsi, -16(%rbp)
	movq	%rdx, -8(%rbp)
	movq	%rcx, -32(%rbp)
	movq	%r8, -24(%rbp)
.Ltmp0:
	.loc	1 5 11 prologue_end             # file_libc.c3:5:11
	xorl	%eax, %eax
                                        # kill: def $rax killed $eax
	cmpq	-24(%rbp), %rax
	jb	.LBB0_2
# %bb.1:
	leaq	.panic_msg(%rip), %rdi
	movl	$33, %esi
	leaq	.file(%rip), %rdx
	movl	$12, %r9d
	leaq	.func(%rip), %r8
	movq	std.core.builtin.panic@GOTPCREL(%rip), %rax
	movq	%r9, %rcx
	movl	$5, (%rsp)
	callq	*(%rax)
.LBB0_2:
	.loc	1 6 11                          # file_libc.c3:6:11
	xorl	%eax, %eax
                                        # kill: def $rax killed $eax
	cmpq	-8(%rbp), %rax
	jb	.LBB0_4
# %bb.3:
	leaq	.panic_msg.1(%rip), %rdi
	movl	$37, %esi
	leaq	.file(%rip), %rdx
	movl	$12, %r9d
	leaq	.func(%rip), %r8
	movq	std.core.builtin.panic@GOTPCREL(%rip), %rax
	movq	%r9, %rcx
	movl	$6, (%rsp)
	callq	*(%rax)
.Ltmp1:
.LBB0_4:
	.loc	1 0 11 is_stmt 0                # file_libc.c3:0:11
	movq	$0, -40(%rbp)
.Ltmp2:
	.file	2 "/nix/store/ihf6dmy4cll298qphlwhnmgml1y02khm-c3c-0.7.5/lib/c3/std/core" "mem.c3"
	.loc	2 641 41 is_stmt 1              # mem.c3:641:41
	movq	-40(%rbp), %rdi
	.loc	2 641 20 is_stmt 0              # mem.c3:641:20
	callq	std.core.mem.allocator.push_pool@PLT
	movq	%rax, -48(%rbp)
.Ltmp3:
	.loc	1 13 28 is_stmt 1               # file_libc.c3:13:28
	movq	-16(%rbp), %rdi
	movq	-8(%rbp), %rsi
	callq	std.core.String.zstr_tcopy@PLT
	movq	%rax, -104(%rbp)                # 8-byte Spill
	.loc	1 13 51 is_stmt 0               # file_libc.c3:13:51
	movq	-32(%rbp), %rdi
	movq	-24(%rbp), %rsi
	callq	std.core.String.zstr_tcopy@PLT
	movq	-104(%rbp), %rdi                # 8-byte Reload
	movq	%rax, %rsi
	.loc	1 13 16                         # file_libc.c3:13:16
	callq	fopen@PLT
	movq	%rax, -56(%rbp)
	.loc	1 15 10 is_stmt 1               # file_libc.c3:15:10
	movq	-56(%rbp), %rax
	movq	%rax, -96(%rbp)                 # 8-byte Spill
	cmpq	$0, %rax
	je	.LBB0_6
# %bb.5:
	jmp	.LBB0_30
.LBB0_6:
.Ltmp4:
	.loc	1 81 10                         # file_libc.c3:81:10
	callq	libc.errno@PLT
	movl	%eax, -76(%rbp)
# %bb.7:
	.loc	1 0 10 is_stmt 0                # file_libc.c3:0:10
	movl	-76(%rbp), %eax
	addl	$-2, %eax
	movl	%eax, %ecx
	movq	%rcx, -112(%rbp)                # 8-byte Spill
	subl	$120, %eax
	ja	.LBB0_28
# %bb.32:
	movq	-112(%rbp), %rax                # 8-byte Reload
	leaq	.LJTI0_0(%rip), %rcx
	movslq	(%rcx,%rax,4), %rax
	addq	%rcx, %rax
	jmpq	*%rax
.LBB0_8:
.Ltmp5:
	.loc	1 83 30 is_stmt 1               # file_libc.c3:83:30
	movq	std.io.NO_PERMISSION@GOTPCREL(%rip), %rax
	movq	%rax, -72(%rbp)
	jmp	.LBB0_29
.Ltmp6:
.LBB0_9:
	.loc	1 84 30                         # file_libc.c3:84:30
	movq	std.io.OUT_OF_SPACE@GOTPCREL(%rip), %rax
	movq	%rax, -72(%rbp)
	jmp	.LBB0_29
.Ltmp7:
.LBB0_10:
	.loc	1 85 29                         # file_libc.c3:85:29
	movq	std.io.FILE_NOT_VALID@GOTPCREL(%rip), %rax
	movq	%rax, -72(%rbp)
	jmp	.LBB0_29
.Ltmp8:
.LBB0_11:
	.loc	1 86 30                         # file_libc.c3:86:30
	movq	std.io.ALREADY_EXISTS@GOTPCREL(%rip), %rax
	movq	%rax, -72(%rbp)
	jmp	.LBB0_29
.Ltmp9:
.LBB0_12:
	.loc	1 87 29                         # file_libc.c3:87:29
	movq	std.io.INTERRUPTED@GOTPCREL(%rip), %rax
	movq	%rax, -72(%rbp)
	jmp	.LBB0_29
.Ltmp10:
.LBB0_13:
	.loc	1 88 30                         # file_libc.c3:88:30
	movq	std.io.GENERAL_ERROR@GOTPCREL(%rip), %rax
	movq	%rax, -72(%rbp)
	jmp	.LBB0_29
.Ltmp11:
.LBB0_14:
	.loc	1 89 30                         # file_libc.c3:89:30
	movq	std.io.FILE_IS_DIR@GOTPCREL(%rip), %rax
	movq	%rax, -72(%rbp)
	jmp	.LBB0_29
.Ltmp12:
.LBB0_15:
	.loc	1 90 29                         # file_libc.c3:90:29
	movq	std.io.SYMLINK_FAILED@GOTPCREL(%rip), %rax
	movq	%rax, -72(%rbp)
	jmp	.LBB0_29
.Ltmp13:
.LBB0_16:
	.loc	1 91 30                         # file_libc.c3:91:30
	movq	std.io.TOO_MANY_DESCRIPTORS@GOTPCREL(%rip), %rax
	movq	%rax, -72(%rbp)
	jmp	.LBB0_29
.Ltmp14:
.LBB0_17:
	.loc	1 92 36                         # file_libc.c3:92:36
	movq	std.io.NAME_TOO_LONG@GOTPCREL(%rip), %rax
	movq	%rax, -72(%rbp)
	jmp	.LBB0_29
.Ltmp15:
.LBB0_18:
	.loc	1 93 30                         # file_libc.c3:93:30
	movq	std.io.OUT_OF_SPACE@GOTPCREL(%rip), %rax
	movq	%rax, -72(%rbp)
	jmp	.LBB0_29
.Ltmp16:
.LBB0_19:
	.loc	1 94 31                         # file_libc.c3:94:31
	movq	std.io.FILE_NOT_DIR@GOTPCREL(%rip), %rax
	movq	%rax, -72(%rbp)
	jmp	.LBB0_29
.Ltmp17:
.LBB0_20:
	.loc	1 95 30                         # file_libc.c3:95:30
	movq	std.io.FILE_NOT_FOUND@GOTPCREL(%rip), %rax
	movq	%rax, -72(%rbp)
	jmp	.LBB0_29
.Ltmp18:
.LBB0_21:
	.loc	1 96 30                         # file_libc.c3:96:30
	movq	std.io.OUT_OF_SPACE@GOTPCREL(%rip), %rax
	movq	%rax, -72(%rbp)
	jmp	.LBB0_29
.Ltmp19:
.LBB0_22:
	.loc	1 97 29                         # file_libc.c3:97:29
	movq	std.io.FILE_NOT_FOUND@GOTPCREL(%rip), %rax
	movq	%rax, -72(%rbp)
	jmp	.LBB0_29
.Ltmp20:
.LBB0_23:
	.loc	1 98 33                         # file_libc.c3:98:33
	movq	std.io.OVERFLOW@GOTPCREL(%rip), %rax
	movq	%rax, -72(%rbp)
	jmp	.LBB0_29
.Ltmp21:
.LBB0_24:
	.loc	1 99 29                         # file_libc.c3:99:29
	movq	std.io.READ_ONLY@GOTPCREL(%rip), %rax
	movq	%rax, -72(%rbp)
	jmp	.LBB0_29
.Ltmp22:
.LBB0_25:
	.loc	1 100 34                        # file_libc.c3:100:34
	movq	std.io.UNSUPPORTED_OPERATION@GOTPCREL(%rip), %rax
	movq	%rax, -72(%rbp)
	jmp	.LBB0_29
.Ltmp23:
.LBB0_26:
	.loc	1 101 27                        # file_libc.c3:101:27
	movq	std.io.INCOMPLETE_WRITE@GOTPCREL(%rip), %rax
	movq	%rax, -72(%rbp)
	jmp	.LBB0_29
.Ltmp24:
.LBB0_27:
	.loc	1 102 35                        # file_libc.c3:102:35
	movq	std.io.WOULD_BLOCK@GOTPCREL(%rip), %rax
	movq	%rax, -72(%rbp)
	jmp	.LBB0_29
.Ltmp25:
.LBB0_28:
	.loc	1 103 19                        # file_libc.c3:103:19
	movq	std.io.UNKNOWN_ERROR@GOTPCREL(%rip), %rax
	movq	%rax, -72(%rbp)
.LBB0_29:
	movq	-72(%rbp), %rax
	movq	%rax, -64(%rbp)
	jmp	.LBB0_31
.Ltmp26:
.LBB0_30:
	.loc	2 644 23                        # mem.c3:644:23
	movq	-48(%rbp), %rdi
	.loc	2 644 3 is_stmt 0               # mem.c3:644:3
	callq	std.core.mem.allocator.pop_pool@PLT
	movq	-96(%rbp), %rcx                 # 8-byte Reload
	movq	-88(%rbp), %rax                 # 8-byte Reload
	movq	%rcx, (%rax)
	xorl	%eax, %eax
                                        # kill: def $rax killed $eax
	.loc	2 644 3 epilogue_begin          # mem.c3:644:3
	addq	$128, %rsp
	popq	%rbp
	.cfi_def_cfa %rsp, 8
	retq
.Ltmp27:
.LBB0_31:
	.cfi_def_cfa %rbp, 16
	.loc	2 644 23                        # mem.c3:644:23
	movq	-48(%rbp), %rdi
	.loc	2 644 3                         # mem.c3:644:3
	callq	std.core.mem.allocator.pop_pool@PLT
	movq	-64(%rbp), %rax
	.loc	2 644 3 epilogue_begin          # mem.c3:644:3
	addq	$128, %rsp
	popq	%rbp
	.cfi_def_cfa %rsp, 8
	retq
.Ltmp28:
.Lfunc_end0:
	.size	std.io.os.native_fopen, .Lfunc_end0-std.io.os.native_fopen
	.cfi_endproc
	.section	.rodata.std.io.os.native_fopen,"aG",@progbits,std.io.os.native_fopen,comdat
	.p2align	2, 0x0
.LJTI0_0:
	.long	.LBB0_20-.LJTI0_0
	.long	.LBB0_28-.LJTI0_0
	.long	.LBB0_12-.LJTI0_0
	.long	.LBB0_26-.LJTI0_0
	.long	.LBB0_22-.LJTI0_0
	.long	.LBB0_28-.LJTI0_0
	.long	.LBB0_28-.LJTI0_0
	.long	.LBB0_10-.LJTI0_0
	.long	.LBB0_28-.LJTI0_0
	.long	.LBB0_27-.LJTI0_0
	.long	.LBB0_28-.LJTI0_0
	.long	.LBB0_8-.LJTI0_0
	.long	.LBB0_13-.LJTI0_0
	.long	.LBB0_28-.LJTI0_0
	.long	.LBB0_28-.LJTI0_0
	.long	.LBB0_11-.LJTI0_0
	.long	.LBB0_28-.LJTI0_0
	.long	.LBB0_28-.LJTI0_0
	.long	.LBB0_19-.LJTI0_0
	.long	.LBB0_14-.LJTI0_0
	.long	.LBB0_28-.LJTI0_0
	.long	.LBB0_18-.LJTI0_0
	.long	.LBB0_16-.LJTI0_0
	.long	.LBB0_28-.LJTI0_0
	.long	.LBB0_28-.LJTI0_0
	.long	.LBB0_28-.LJTI0_0
	.long	.LBB0_21-.LJTI0_0
	.long	.LBB0_28-.LJTI0_0
	.long	.LBB0_24-.LJTI0_0
	.long	.LBB0_28-.LJTI0_0
	.long	.LBB0_28-.LJTI0_0
	.long	.LBB0_28-.LJTI0_0
	.long	.LBB0_28-.LJTI0_0
	.long	.LBB0_28-.LJTI0_0
	.long	.LBB0_17-.LJTI0_0
	.long	.LBB0_28-.LJTI0_0
	.long	.LBB0_28-.LJTI0_0
	.long	.LBB0_28-.LJTI0_0
	.long	.LBB0_15-.LJTI0_0
	.long	.LBB0_28-.LJTI0_0
	.long	.LBB0_28-.LJTI0_0
	.long	.LBB0_28-.LJTI0_0
	.long	.LBB0_28-.LJTI0_0
	.long	.LBB0_28-.LJTI0_0
	.long	.LBB0_28-.LJTI0_0
	.long	.LBB0_28-.LJTI0_0
	.long	.LBB0_28-.LJTI0_0
	.long	.LBB0_28-.LJTI0_0
	.long	.LBB0_28-.LJTI0_0
	.long	.LBB0_28-.LJTI0_0
	.long	.LBB0_28-.LJTI0_0
	.long	.LBB0_28-.LJTI0_0
	.long	.LBB0_28-.LJTI0_0
	.long	.LBB0_28-.LJTI0_0
	.long	.LBB0_28-.LJTI0_0
	.long	.LBB0_28-.LJTI0_0
	.long	.LBB0_28-.LJTI0_0
	.long	.LBB0_28-.LJTI0_0
	.long	.LBB0_28-.LJTI0_0
	.long	.LBB0_28-.LJTI0_0
	.long	.LBB0_28-.LJTI0_0
	.long	.LBB0_28-.LJTI0_0
	.long	.LBB0_28-.LJTI0_0
	.long	.LBB0_28-.LJTI0_0
	.long	.LBB0_28-.LJTI0_0
	.long	.LBB0_28-.LJTI0_0
	.long	.LBB0_28-.LJTI0_0
	.long	.LBB0_28-.LJTI0_0
	.long	.LBB0_28-.LJTI0_0
	.long	.LBB0_28-.LJTI0_0
	.long	.LBB0_28-.LJTI0_0
	.long	.LBB0_28-.LJTI0_0
	.long	.LBB0_28-.LJTI0_0
	.long	.LBB0_23-.LJTI0_0
	.long	.LBB0_28-.LJTI0_0
	.long	.LBB0_28-.LJTI0_0
	.long	.LBB0_28-.LJTI0_0
	.long	.LBB0_28-.LJTI0_0
	.long	.LBB0_28-.LJTI0_0
	.long	.LBB0_28-.LJTI0_0
	.long	.LBB0_28-.LJTI0_0
	.long	.LBB0_28-.LJTI0_0
	.long	.LBB0_28-.LJTI0_0
	.long	.LBB0_28-.LJTI0_0
	.long	.LBB0_28-.LJTI0_0
	.long	.LBB0_28-.LJTI0_0
	.long	.LBB0_28-.LJTI0_0
	.long	.LBB0_28-.LJTI0_0
	.long	.LBB0_28-.LJTI0_0
	.long	.LBB0_28-.LJTI0_0
	.long	.LBB0_28-.LJTI0_0
	.long	.LBB0_28-.LJTI0_0
	.long	.LBB0_28-.LJTI0_0
	.long	.LBB0_25-.LJTI0_0
	.long	.LBB0_28-.LJTI0_0
	.long	.LBB0_28-.LJTI0_0
	.long	.LBB0_28-.LJTI0_0
	.long	.LBB0_28-.LJTI0_0
	.long	.LBB0_28-.LJTI0_0
	.long	.LBB0_28-.LJTI0_0
	.long	.LBB0_28-.LJTI0_0
	.long	.LBB0_28-.LJTI0_0
	.long	.LBB0_28-.LJTI0_0
	.long	.LBB0_28-.LJTI0_0
	.long	.LBB0_28-.LJTI0_0
	.long	.LBB0_28-.LJTI0_0
	.long	.LBB0_28-.LJTI0_0
	.long	.LBB0_28-.LJTI0_0
	.long	.LBB0_28-.LJTI0_0
	.long	.LBB0_28-.LJTI0_0
	.long	.LBB0_28-.LJTI0_0
	.long	.LBB0_28-.LJTI0_0
	.long	.LBB0_28-.LJTI0_0
	.long	.LBB0_28-.LJTI0_0
	.long	.LBB0_28-.LJTI0_0
	.long	.LBB0_28-.LJTI0_0
	.long	.LBB0_28-.LJTI0_0
	.long	.LBB0_28-.LJTI0_0
	.long	.LBB0_28-.LJTI0_0
	.long	.LBB0_28-.LJTI0_0
	.long	.LBB0_9-.LJTI0_0
                                        # -- End function
	.section	.text.std.io.os.native_fseek,"axG",@progbits,std.io.os.native_fseek,comdat
	.weak	std.io.os.native_fseek          # -- Begin function std.io.os.native_fseek
	.p2align	4, 0x90
	.type	std.io.os.native_fseek,@function
std.io.os.native_fseek:                 # @std.io.os.native_fseek
.Lfunc_begin1:
	.loc	1 52 0 is_stmt 1                # file_libc.c3:52:0
	.cfi_startproc
# %bb.0:
	pushq	%rbp
	.cfi_def_cfa_offset 16
	.cfi_offset %rbp, -16
	movq	%rsp, %rbp
	.cfi_def_cfa_register %rbp
	subq	$48, %rsp
	movq	%rdi, -8(%rbp)
	movq	%rsi, -16(%rbp)
	movl	%edx, -20(%rbp)
.Ltmp29:
	.loc	1 54 43 prologue_end            # file_libc.c3:54:43
	movq	-8(%rbp), %rdi
	movq	-16(%rbp), %rsi
	movl	-20(%rbp), %edx
	.loc	1 54 6 is_stmt 0                # file_libc.c3:54:6
	callq	fseek@PLT
	cmpl	$0, %eax
	je	.LBB1_16
# %bb.1:
.Ltmp30:
	.loc	1 109 10 is_stmt 1              # file_libc.c3:109:10
	callq	libc.errno@PLT
	movl	%eax, -36(%rbp)
# %bb.2:
	.loc	1 0 10 is_stmt 0                # file_libc.c3:0:10
	movl	-36(%rbp), %eax
	addl	$-4, %eax
	movl	%eax, %ecx
	movq	%rcx, -48(%rbp)                 # 8-byte Spill
	subl	$71, %eax
	ja	.LBB1_14
# %bb.17:
	movq	-48(%rbp), %rax                 # 8-byte Reload
	leaq	.LJTI1_0(%rip), %rcx
	movslq	(%rcx,%rax,4), %rax
	addq	%rcx, %rax
	jmpq	*%rax
.LBB1_3:
.Ltmp31:
	.loc	1 111 30 is_stmt 1              # file_libc.c3:111:30
	movq	std.io.FILE_IS_PIPE@GOTPCREL(%rip), %rax
	movq	%rax, -32(%rbp)
	jmp	.LBB1_15
.Ltmp32:
.LBB1_4:
	.loc	1 112 29                        # file_libc.c3:112:29
	movq	std.io.FILE_IS_PIPE@GOTPCREL(%rip), %rax
	movq	%rax, -32(%rbp)
	jmp	.LBB1_15
.Ltmp33:
.LBB1_5:
	.loc	1 113 33                        # file_libc.c3:113:33
	movq	std.io.OVERFLOW@GOTPCREL(%rip), %rax
	movq	%rax, -32(%rbp)
	jmp	.LBB1_15
.Ltmp34:
.LBB1_6:
	.loc	1 114 29                        # file_libc.c3:114:29
	movq	std.io.FILE_NOT_FOUND@GOTPCREL(%rip), %rax
	movq	%rax, -32(%rbp)
	jmp	.LBB1_15
.Ltmp35:
.LBB1_7:
	.loc	1 115 30                        # file_libc.c3:115:30
	movq	std.io.OUT_OF_SPACE@GOTPCREL(%rip), %rax
	movq	%rax, -32(%rbp)
	jmp	.LBB1_15
.Ltmp36:
.LBB1_8:
	.loc	1 116 27                        # file_libc.c3:116:27
	movq	std.io.INCOMPLETE_WRITE@GOTPCREL(%rip), %rax
	movq	%rax, -32(%rbp)
	jmp	.LBB1_15
.Ltmp37:
.LBB1_9:
	.loc	1 117 30                        # file_libc.c3:117:30
	movq	std.io.INVALID_POSITION@GOTPCREL(%rip), %rax
	movq	%rax, -32(%rbp)
	jmp	.LBB1_15
.Ltmp38:
.LBB1_10:
	.loc	1 118 29                        # file_libc.c3:118:29
	movq	std.io.INTERRUPTED@GOTPCREL(%rip), %rax
	movq	%rax, -32(%rbp)
	jmp	.LBB1_15
.Ltmp39:
.LBB1_11:
	.loc	1 119 29                        # file_libc.c3:119:29
	movq	std.io.OUT_OF_SPACE@GOTPCREL(%rip), %rax
	movq	%rax, -32(%rbp)
	jmp	.LBB1_15
.Ltmp40:
.LBB1_12:
	.loc	1 120 29                        # file_libc.c3:120:29
	movq	std.io.FILE_NOT_VALID@GOTPCREL(%rip), %rax
	movq	%rax, -32(%rbp)
	jmp	.LBB1_15
.Ltmp41:
.LBB1_13:
	.loc	1 121 30                        # file_libc.c3:121:30
	movq	std.io.WOULD_BLOCK@GOTPCREL(%rip), %rax
	movq	%rax, -32(%rbp)
	jmp	.LBB1_15
.Ltmp42:
.LBB1_14:
	.loc	1 122 19                        # file_libc.c3:122:19
	movq	std.io.UNKNOWN_ERROR@GOTPCREL(%rip), %rax
	movq	%rax, -32(%rbp)
.LBB1_15:
	movq	-32(%rbp), %rax
	.loc	1 122 19 epilogue_begin is_stmt 0 # file_libc.c3:122:19
	addq	$48, %rsp
	popq	%rbp
	.cfi_def_cfa %rsp, 8
	retq
.LBB1_16:
	.cfi_def_cfa %rbp, 16
	xorl	%eax, %eax
                                        # kill: def $rax killed $eax
	.loc	1 122 19 epilogue_begin         # file_libc.c3:122:19
	addq	$48, %rsp
	popq	%rbp
	.cfi_def_cfa %rsp, 8
	retq
.Ltmp43:
.Lfunc_end1:
	.size	std.io.os.native_fseek, .Lfunc_end1-std.io.os.native_fseek
	.cfi_endproc
	.section	.rodata.std.io.os.native_fseek,"aG",@progbits,std.io.os.native_fseek,comdat
	.p2align	2, 0x0
.LJTI1_0:
	.long	.LBB1_10-.LJTI1_0
	.long	.LBB1_8-.LJTI1_0
	.long	.LBB1_6-.LJTI1_0
	.long	.LBB1_14-.LJTI1_0
	.long	.LBB1_14-.LJTI1_0
	.long	.LBB1_12-.LJTI1_0
	.long	.LBB1_14-.LJTI1_0
	.long	.LBB1_13-.LJTI1_0
	.long	.LBB1_14-.LJTI1_0
	.long	.LBB1_14-.LJTI1_0
	.long	.LBB1_14-.LJTI1_0
	.long	.LBB1_14-.LJTI1_0
	.long	.LBB1_14-.LJTI1_0
	.long	.LBB1_14-.LJTI1_0
	.long	.LBB1_14-.LJTI1_0
	.long	.LBB1_14-.LJTI1_0
	.long	.LBB1_14-.LJTI1_0
	.long	.LBB1_14-.LJTI1_0
	.long	.LBB1_9-.LJTI1_0
	.long	.LBB1_14-.LJTI1_0
	.long	.LBB1_14-.LJTI1_0
	.long	.LBB1_14-.LJTI1_0
	.long	.LBB1_14-.LJTI1_0
	.long	.LBB1_11-.LJTI1_0
	.long	.LBB1_7-.LJTI1_0
	.long	.LBB1_3-.LJTI1_0
	.long	.LBB1_14-.LJTI1_0
	.long	.LBB1_14-.LJTI1_0
	.long	.LBB1_4-.LJTI1_0
	.long	.LBB1_14-.LJTI1_0
	.long	.LBB1_14-.LJTI1_0
	.long	.LBB1_14-.LJTI1_0
	.long	.LBB1_14-.LJTI1_0
	.long	.LBB1_14-.LJTI1_0
	.long	.LBB1_14-.LJTI1_0
	.long	.LBB1_14-.LJTI1_0
	.long	.LBB1_14-.LJTI1_0
	.long	.LBB1_14-.LJTI1_0
	.long	.LBB1_14-.LJTI1_0
	.long	.LBB1_14-.LJTI1_0
	.long	.LBB1_14-.LJTI1_0
	.long	.LBB1_14-.LJTI1_0
	.long	.LBB1_14-.LJTI1_0
	.long	.LBB1_14-.LJTI1_0
	.long	.LBB1_14-.LJTI1_0
	.long	.LBB1_14-.LJTI1_0
	.long	.LBB1_14-.LJTI1_0
	.long	.LBB1_14-.LJTI1_0
	.long	.LBB1_14-.LJTI1_0
	.long	.LBB1_14-.LJTI1_0
	.long	.LBB1_14-.LJTI1_0
	.long	.LBB1_14-.LJTI1_0
	.long	.LBB1_14-.LJTI1_0
	.long	.LBB1_14-.LJTI1_0
	.long	.LBB1_14-.LJTI1_0
	.long	.LBB1_14-.LJTI1_0
	.long	.LBB1_14-.LJTI1_0
	.long	.LBB1_14-.LJTI1_0
	.long	.LBB1_14-.LJTI1_0
	.long	.LBB1_14-.LJTI1_0
	.long	.LBB1_14-.LJTI1_0
	.long	.LBB1_14-.LJTI1_0
	.long	.LBB1_14-.LJTI1_0
	.long	.LBB1_14-.LJTI1_0
	.long	.LBB1_14-.LJTI1_0
	.long	.LBB1_14-.LJTI1_0
	.long	.LBB1_14-.LJTI1_0
	.long	.LBB1_14-.LJTI1_0
	.long	.LBB1_14-.LJTI1_0
	.long	.LBB1_14-.LJTI1_0
	.long	.LBB1_14-.LJTI1_0
	.long	.LBB1_5-.LJTI1_0
                                        # -- End function
	.section	.text.std.io.os.native_ftell,"axG",@progbits,std.io.os.native_ftell,comdat
	.weak	std.io.os.native_ftell          # -- Begin function std.io.os.native_ftell
	.p2align	4, 0x90
	.type	std.io.os.native_ftell,@function
std.io.os.native_ftell:                 # @std.io.os.native_ftell
.Lfunc_begin2:
	.loc	1 58 0 is_stmt 1                # file_libc.c3:58:0
	.cfi_startproc
# %bb.0:
	pushq	%rbp
	.cfi_def_cfa_offset 16
	.cfi_offset %rbp, -16
	movq	%rsp, %rbp
	.cfi_def_cfa_register %rbp
	subq	$64, %rsp
	movq	%rdi, -48(%rbp)                 # 8-byte Spill
	movq	%rsi, -8(%rbp)
.Ltmp44:
	.loc	1 60 27 prologue_end            # file_libc.c3:60:27
	movq	-8(%rbp), %rdi
	.loc	1 60 15 is_stmt 0               # file_libc.c3:60:15
	callq	ftell@PLT
	movq	%rax, -16(%rbp)
	.loc	1 61 9 is_stmt 1                # file_libc.c3:61:9
	cmpq	$0, -16(%rbp)
	jl	.LBB2_2
# %bb.1:
	.loc	1 61 22 is_stmt 0               # file_libc.c3:61:22
	movq	-16(%rbp), %rax
	movq	%rax, -56(%rbp)                 # 8-byte Spill
	jmp	.LBB2_17
.LBB2_2:
.Ltmp45:
	.loc	1 109 10 is_stmt 1              # file_libc.c3:109:10
	callq	libc.errno@PLT
	movl	%eax, -36(%rbp)
# %bb.3:
	.loc	1 0 10 is_stmt 0                # file_libc.c3:0:10
	movl	-36(%rbp), %eax
	addl	$-4, %eax
	movl	%eax, %ecx
	movq	%rcx, -64(%rbp)                 # 8-byte Spill
	subl	$71, %eax
	ja	.LBB2_15
# %bb.19:
	movq	-64(%rbp), %rax                 # 8-byte Reload
	leaq	.LJTI2_0(%rip), %rcx
	movslq	(%rcx,%rax,4), %rax
	addq	%rcx, %rax
	jmpq	*%rax
.LBB2_4:
.Ltmp46:
	.loc	1 111 30 is_stmt 1              # file_libc.c3:111:30
	movq	std.io.FILE_IS_PIPE@GOTPCREL(%rip), %rax
	movq	%rax, -32(%rbp)
	jmp	.LBB2_16
.Ltmp47:
.LBB2_5:
	.loc	1 112 29                        # file_libc.c3:112:29
	movq	std.io.FILE_IS_PIPE@GOTPCREL(%rip), %rax
	movq	%rax, -32(%rbp)
	jmp	.LBB2_16
.Ltmp48:
.LBB2_6:
	.loc	1 113 33                        # file_libc.c3:113:33
	movq	std.io.OVERFLOW@GOTPCREL(%rip), %rax
	movq	%rax, -32(%rbp)
	jmp	.LBB2_16
.Ltmp49:
.LBB2_7:
	.loc	1 114 29                        # file_libc.c3:114:29
	movq	std.io.FILE_NOT_FOUND@GOTPCREL(%rip), %rax
	movq	%rax, -32(%rbp)
	jmp	.LBB2_16
.Ltmp50:
.LBB2_8:
	.loc	1 115 30                        # file_libc.c3:115:30
	movq	std.io.OUT_OF_SPACE@GOTPCREL(%rip), %rax
	movq	%rax, -32(%rbp)
	jmp	.LBB2_16
.Ltmp51:
.LBB2_9:
	.loc	1 116 27                        # file_libc.c3:116:27
	movq	std.io.INCOMPLETE_WRITE@GOTPCREL(%rip), %rax
	movq	%rax, -32(%rbp)
	jmp	.LBB2_16
.Ltmp52:
.LBB2_10:
	.loc	1 117 30                        # file_libc.c3:117:30
	movq	std.io.INVALID_POSITION@GOTPCREL(%rip), %rax
	movq	%rax, -32(%rbp)
	jmp	.LBB2_16
.Ltmp53:
.LBB2_11:
	.loc	1 118 29                        # file_libc.c3:118:29
	movq	std.io.INTERRUPTED@GOTPCREL(%rip), %rax
	movq	%rax, -32(%rbp)
	jmp	.LBB2_16
.Ltmp54:
.LBB2_12:
	.loc	1 119 29                        # file_libc.c3:119:29
	movq	std.io.OUT_OF_SPACE@GOTPCREL(%rip), %rax
	movq	%rax, -32(%rbp)
	jmp	.LBB2_16
.Ltmp55:
.LBB2_13:
	.loc	1 120 29                        # file_libc.c3:120:29
	movq	std.io.FILE_NOT_VALID@GOTPCREL(%rip), %rax
	movq	%rax, -32(%rbp)
	jmp	.LBB2_16
.Ltmp56:
.LBB2_14:
	.loc	1 121 30                        # file_libc.c3:121:30
	movq	std.io.WOULD_BLOCK@GOTPCREL(%rip), %rax
	movq	%rax, -32(%rbp)
	jmp	.LBB2_16
.Ltmp57:
.LBB2_15:
	.loc	1 122 19                        # file_libc.c3:122:19
	movq	std.io.UNKNOWN_ERROR@GOTPCREL(%rip), %rax
	movq	%rax, -32(%rbp)
.LBB2_16:
	movq	-32(%rbp), %rax
	movq	%rax, -24(%rbp)
	jmp	.LBB2_18
.LBB2_17:
	.loc	1 0 19 is_stmt 0                # file_libc.c3:0:19
	movq	-48(%rbp), %rax                 # 8-byte Reload
	movq	-56(%rbp), %rcx                 # 8-byte Reload
	.loc	1 122 19                        # file_libc.c3:122:19
	movq	%rcx, (%rax)
	xorl	%eax, %eax
                                        # kill: def $rax killed $eax
	.loc	1 122 19 epilogue_begin         # file_libc.c3:122:19
	addq	$64, %rsp
	popq	%rbp
	.cfi_def_cfa %rsp, 8
	retq
.LBB2_18:
	.cfi_def_cfa %rbp, 16
	movq	-24(%rbp), %rax
	.loc	1 122 19 epilogue_begin         # file_libc.c3:122:19
	addq	$64, %rsp
	popq	%rbp
	.cfi_def_cfa %rsp, 8
	retq
.Ltmp58:
.Lfunc_end2:
	.size	std.io.os.native_ftell, .Lfunc_end2-std.io.os.native_ftell
	.cfi_endproc
	.section	.rodata.std.io.os.native_ftell,"aG",@progbits,std.io.os.native_ftell,comdat
	.p2align	2, 0x0
.LJTI2_0:
	.long	.LBB2_11-.LJTI2_0
	.long	.LBB2_9-.LJTI2_0
	.long	.LBB2_7-.LJTI2_0
	.long	.LBB2_15-.LJTI2_0
	.long	.LBB2_15-.LJTI2_0
	.long	.LBB2_13-.LJTI2_0
	.long	.LBB2_15-.LJTI2_0
	.long	.LBB2_14-.LJTI2_0
	.long	.LBB2_15-.LJTI2_0
	.long	.LBB2_15-.LJTI2_0
	.long	.LBB2_15-.LJTI2_0
	.long	.LBB2_15-.LJTI2_0
	.long	.LBB2_15-.LJTI2_0
	.long	.LBB2_15-.LJTI2_0
	.long	.LBB2_15-.LJTI2_0
	.long	.LBB2_15-.LJTI2_0
	.long	.LBB2_15-.LJTI2_0
	.long	.LBB2_15-.LJTI2_0
	.long	.LBB2_10-.LJTI2_0
	.long	.LBB2_15-.LJTI2_0
	.long	.LBB2_15-.LJTI2_0
	.long	.LBB2_15-.LJTI2_0
	.long	.LBB2_15-.LJTI2_0
	.long	.LBB2_12-.LJTI2_0
	.long	.LBB2_8-.LJTI2_0
	.long	.LBB2_4-.LJTI2_0
	.long	.LBB2_15-.LJTI2_0
	.long	.LBB2_15-.LJTI2_0
	.long	.LBB2_5-.LJTI2_0
	.long	.LBB2_15-.LJTI2_0
	.long	.LBB2_15-.LJTI2_0
	.long	.LBB2_15-.LJTI2_0
	.long	.LBB2_15-.LJTI2_0
	.long	.LBB2_15-.LJTI2_0
	.long	.LBB2_15-.LJTI2_0
	.long	.LBB2_15-.LJTI2_0
	.long	.LBB2_15-.LJTI2_0
	.long	.LBB2_15-.LJTI2_0
	.long	.LBB2_15-.LJTI2_0
	.long	.LBB2_15-.LJTI2_0
	.long	.LBB2_15-.LJTI2_0
	.long	.LBB2_15-.LJTI2_0
	.long	.LBB2_15-.LJTI2_0
	.long	.LBB2_15-.LJTI2_0
	.long	.LBB2_15-.LJTI2_0
	.long	.LBB2_15-.LJTI2_0
	.long	.LBB2_15-.LJTI2_0
	.long	.LBB2_15-.LJTI2_0
	.long	.LBB2_15-.LJTI2_0
	.long	.LBB2_15-.LJTI2_0
	.long	.LBB2_15-.LJTI2_0
	.long	.LBB2_15-.LJTI2_0
	.long	.LBB2_15-.LJTI2_0
	.long	.LBB2_15-.LJTI2_0
	.long	.LBB2_15-.LJTI2_0
	.long	.LBB2_15-.LJTI2_0
	.long	.LBB2_15-.LJTI2_0
	.long	.LBB2_15-.LJTI2_0
	.long	.LBB2_15-.LJTI2_0
	.long	.LBB2_15-.LJTI2_0
	.long	.LBB2_15-.LJTI2_0
	.long	.LBB2_15-.LJTI2_0
	.long	.LBB2_15-.LJTI2_0
	.long	.LBB2_15-.LJTI2_0
	.long	.LBB2_15-.LJTI2_0
	.long	.LBB2_15-.LJTI2_0
	.long	.LBB2_15-.LJTI2_0
	.long	.LBB2_15-.LJTI2_0
	.long	.LBB2_15-.LJTI2_0
	.long	.LBB2_15-.LJTI2_0
	.long	.LBB2_15-.LJTI2_0
	.long	.LBB2_6-.LJTI2_0
                                        # -- End function
	.section	.text.std.io.os.native_fwrite,"axG",@progbits,std.io.os.native_fwrite,comdat
	.weak	std.io.os.native_fwrite         # -- Begin function std.io.os.native_fwrite
	.p2align	4, 0x90
	.type	std.io.os.native_fwrite,@function
std.io.os.native_fwrite:                # @std.io.os.native_fwrite
.Lfunc_begin3:
	.loc	1 64 0 is_stmt 1                # file_libc.c3:64:0
	.cfi_startproc
# %bb.0:
	pushq	%rbp
	.cfi_def_cfa_offset 16
	.cfi_offset %rbp, -16
	movq	%rsp, %rbp
	.cfi_def_cfa_register %rbp
	subq	$48, %rsp
	movq	%rdi, -40(%rbp)                 # 8-byte Spill
	movq	%rsi, -8(%rbp)
	movq	%rdx, -24(%rbp)
	movq	%rcx, -16(%rbp)
.Ltmp59:
	.loc	1 66 22 prologue_end            # file_libc.c3:66:22
	movq	-24(%rbp), %rdi
	.loc	1 66 49 is_stmt 0               # file_libc.c3:66:49
	movq	-16(%rbp), %rdx
	movq	-8(%rbp), %rcx
	.loc	1 66 9                          # file_libc.c3:66:9
	movl	$1, %esi
	callq	fwrite@PLT
	movq	-40(%rbp), %rdi                 # 8-byte Reload
	movq	%rax, (%rdi)
	xorl	%eax, %eax
                                        # kill: def $rax killed $eax
	.loc	1 66 9 epilogue_begin           # file_libc.c3:66:9
	addq	$48, %rsp
	popq	%rbp
	.cfi_def_cfa %rsp, 8
	retq
.Ltmp60:
.Lfunc_end3:
	.size	std.io.os.native_fwrite, .Lfunc_end3-std.io.os.native_fwrite
	.cfi_endproc
                                        # -- End function
	.section	.text.std.io.os.native_fputc,"axG",@progbits,std.io.os.native_fputc,comdat
	.weak	std.io.os.native_fputc          # -- Begin function std.io.os.native_fputc
	.p2align	4, 0x90
	.type	std.io.os.native_fputc,@function
std.io.os.native_fputc:                 # @std.io.os.native_fputc
.Lfunc_begin4:
	.loc	1 69 0 is_stmt 1                # file_libc.c3:69:0
	.cfi_startproc
# %bb.0:
	pushq	%rbp
	.cfi_def_cfa_offset 16
	.cfi_offset %rbp, -16
	movq	%rsp, %rbp
	.cfi_def_cfa_register %rbp
	subq	$16, %rsp
	movl	%edi, -4(%rbp)
	movq	%rsi, -16(%rbp)
.Ltmp61:
	.loc	1 71 21 prologue_end            # file_libc.c3:71:21
	movl	-4(%rbp), %edi
	movq	-16(%rbp), %rsi
	.loc	1 71 6 is_stmt 0                # file_libc.c3:71:6
	callq	fputc@PLT
	cmpl	$-1, %eax
	jne	.LBB4_2
# %bb.1:
	.loc	1 71 50                         # file_libc.c3:71:50
	movq	std.io.EOF@GOTPCREL(%rip), %rax
	.loc	1 71 50 epilogue_begin          # file_libc.c3:71:50
	addq	$16, %rsp
	popq	%rbp
	.cfi_def_cfa %rsp, 8
	retq
.LBB4_2:
	.cfi_def_cfa %rbp, 16
	xorl	%eax, %eax
                                        # kill: def $rax killed $eax
	.loc	1 71 50 epilogue_begin          # file_libc.c3:71:50
	addq	$16, %rsp
	popq	%rbp
	.cfi_def_cfa %rsp, 8
	retq
.Ltmp62:
.Lfunc_end4:
	.size	std.io.os.native_fputc, .Lfunc_end4-std.io.os.native_fputc
	.cfi_endproc
                                        # -- End function
	.section	.text.std.io.os.native_fread,"axG",@progbits,std.io.os.native_fread,comdat
	.weak	std.io.os.native_fread          # -- Begin function std.io.os.native_fread
	.p2align	4, 0x90
	.type	std.io.os.native_fread,@function
std.io.os.native_fread:                 # @std.io.os.native_fread
.Lfunc_begin5:
	.loc	1 74 0 is_stmt 1                # file_libc.c3:74:0
	.cfi_startproc
# %bb.0:
	pushq	%rbp
	.cfi_def_cfa_offset 16
	.cfi_offset %rbp, -16
	movq	%rsp, %rbp
	.cfi_def_cfa_register %rbp
	subq	$48, %rsp
	movq	%rdi, -40(%rbp)                 # 8-byte Spill
	movq	%rsi, -8(%rbp)
	movq	%rdx, -24(%rbp)
	movq	%rcx, -16(%rbp)
.Ltmp63:
	.loc	1 76 21 prologue_end            # file_libc.c3:76:21
	movq	-24(%rbp), %rdi
	.loc	1 76 48 is_stmt 0               # file_libc.c3:76:48
	movq	-16(%rbp), %rdx
	movq	-8(%rbp), %rcx
	.loc	1 76 9                          # file_libc.c3:76:9
	movl	$1, %esi
	callq	fread@PLT
	movq	-40(%rbp), %rdi                 # 8-byte Reload
	movq	%rax, (%rdi)
	xorl	%eax, %eax
                                        # kill: def $rax killed $eax
	.loc	1 76 9 epilogue_begin           # file_libc.c3:76:9
	addq	$48, %rsp
	popq	%rbp
	.cfi_def_cfa %rsp, 8
	retq
.Ltmp64:
.Lfunc_end5:
	.size	std.io.os.native_fread, .Lfunc_end5-std.io.os.native_fread
	.cfi_endproc
                                        # -- End function
	.type	.panic_msg,@object              # @.panic_msg
	.section	.rodata,"a",@progbits
.panic_msg:
	.asciz	"@require \"mode.len > 0\" violated."
	.size	.panic_msg, 34

	.type	.file,@object                   # @.file
.file:
	.asciz	"file_libc.c3"
	.size	.file, 13

	.type	.func,@object                   # @.func
.func:
	.asciz	"native_fopen"
	.size	.func, 13

	.type	.panic_msg.1,@object            # @.panic_msg.1
.panic_msg.1:
	.asciz	"@require \"filename.len > 0\" violated."
	.size	.panic_msg.1, 38

	.type	std.io.NO_PERMISSION,@object    # @std.io.NO_PERMISSION
	.section	.data.rel.ro.std.io.NO_PERMISSION,"awG",@progbits,std.io.NO_PERMISSION,comdat
	.weak	std.io.NO_PERMISSION
	.p2align	3, 0x0
std.io.NO_PERMISSION:
	.quad	std.io.NO_PERMISSION.nameof
	.quad	17                              # 0x11
	.size	std.io.NO_PERMISSION, 16

	.type	std.io.NO_PERMISSION.nameof,@object # @std.io.NO_PERMISSION.nameof
	.section	.rodata,"a",@progbits
std.io.NO_PERMISSION.nameof:
	.asciz	"io::NO_PERMISSION"
	.size	std.io.NO_PERMISSION.nameof, 18

	.type	std.io.OUT_OF_SPACE,@object     # @std.io.OUT_OF_SPACE
	.section	.data.rel.ro.std.io.OUT_OF_SPACE,"awG",@progbits,std.io.OUT_OF_SPACE,comdat
	.weak	std.io.OUT_OF_SPACE
	.p2align	3, 0x0
std.io.OUT_OF_SPACE:
	.quad	std.io.OUT_OF_SPACE.nameof
	.quad	16                              # 0x10
	.size	std.io.OUT_OF_SPACE, 16

	.type	std.io.OUT_OF_SPACE.nameof,@object # @std.io.OUT_OF_SPACE.nameof
	.section	.rodata,"a",@progbits
std.io.OUT_OF_SPACE.nameof:
	.asciz	"io::OUT_OF_SPACE"
	.size	std.io.OUT_OF_SPACE.nameof, 17

	.type	std.io.FILE_NOT_VALID,@object   # @std.io.FILE_NOT_VALID
	.section	.data.rel.ro.std.io.FILE_NOT_VALID,"awG",@progbits,std.io.FILE_NOT_VALID,comdat
	.weak	std.io.FILE_NOT_VALID
	.p2align	3, 0x0
std.io.FILE_NOT_VALID:
	.quad	std.io.FILE_NOT_VALID.nameof
	.quad	18                              # 0x12
	.size	std.io.FILE_NOT_VALID, 16

	.type	std.io.FILE_NOT_VALID.nameof,@object # @std.io.FILE_NOT_VALID.nameof
	.section	.rodata,"a",@progbits
std.io.FILE_NOT_VALID.nameof:
	.asciz	"io::FILE_NOT_VALID"
	.size	std.io.FILE_NOT_VALID.nameof, 19

	.type	std.io.ALREADY_EXISTS,@object   # @std.io.ALREADY_EXISTS
	.section	.data.rel.ro.std.io.ALREADY_EXISTS,"awG",@progbits,std.io.ALREADY_EXISTS,comdat
	.weak	std.io.ALREADY_EXISTS
	.p2align	3, 0x0
std.io.ALREADY_EXISTS:
	.quad	std.io.ALREADY_EXISTS.nameof
	.quad	18                              # 0x12
	.size	std.io.ALREADY_EXISTS, 16

	.type	std.io.ALREADY_EXISTS.nameof,@object # @std.io.ALREADY_EXISTS.nameof
	.section	.rodata,"a",@progbits
std.io.ALREADY_EXISTS.nameof:
	.asciz	"io::ALREADY_EXISTS"
	.size	std.io.ALREADY_EXISTS.nameof, 19

	.type	std.io.INTERRUPTED,@object      # @std.io.INTERRUPTED
	.section	.data.rel.ro.std.io.INTERRUPTED,"awG",@progbits,std.io.INTERRUPTED,comdat
	.weak	std.io.INTERRUPTED
	.p2align	3, 0x0
std.io.INTERRUPTED:
	.quad	std.io.INTERRUPTED.nameof
	.quad	15                              # 0xf
	.size	std.io.INTERRUPTED, 16

	.type	std.io.INTERRUPTED.nameof,@object # @std.io.INTERRUPTED.nameof
	.section	.rodata,"a",@progbits
std.io.INTERRUPTED.nameof:
	.asciz	"io::INTERRUPTED"
	.size	std.io.INTERRUPTED.nameof, 16

	.type	std.io.GENERAL_ERROR,@object    # @std.io.GENERAL_ERROR
	.section	.data.rel.ro.std.io.GENERAL_ERROR,"awG",@progbits,std.io.GENERAL_ERROR,comdat
	.weak	std.io.GENERAL_ERROR
	.p2align	3, 0x0
std.io.GENERAL_ERROR:
	.quad	std.io.GENERAL_ERROR.nameof
	.quad	17                              # 0x11
	.size	std.io.GENERAL_ERROR, 16

	.type	std.io.GENERAL_ERROR.nameof,@object # @std.io.GENERAL_ERROR.nameof
	.section	.rodata,"a",@progbits
std.io.GENERAL_ERROR.nameof:
	.asciz	"io::GENERAL_ERROR"
	.size	std.io.GENERAL_ERROR.nameof, 18

	.type	std.io.FILE_IS_DIR,@object      # @std.io.FILE_IS_DIR
	.section	.data.rel.ro.std.io.FILE_IS_DIR,"awG",@progbits,std.io.FILE_IS_DIR,comdat
	.weak	std.io.FILE_IS_DIR
	.p2align	3, 0x0
std.io.FILE_IS_DIR:
	.quad	std.io.FILE_IS_DIR.nameof
	.quad	15                              # 0xf
	.size	std.io.FILE_IS_DIR, 16

	.type	std.io.FILE_IS_DIR.nameof,@object # @std.io.FILE_IS_DIR.nameof
	.section	.rodata,"a",@progbits
std.io.FILE_IS_DIR.nameof:
	.asciz	"io::FILE_IS_DIR"
	.size	std.io.FILE_IS_DIR.nameof, 16

	.type	std.io.SYMLINK_FAILED,@object   # @std.io.SYMLINK_FAILED
	.section	.data.rel.ro.std.io.SYMLINK_FAILED,"awG",@progbits,std.io.SYMLINK_FAILED,comdat
	.weak	std.io.SYMLINK_FAILED
	.p2align	3, 0x0
std.io.SYMLINK_FAILED:
	.quad	std.io.SYMLINK_FAILED.nameof
	.quad	18                              # 0x12
	.size	std.io.SYMLINK_FAILED, 16

	.type	std.io.SYMLINK_FAILED.nameof,@object # @std.io.SYMLINK_FAILED.nameof
	.section	.rodata,"a",@progbits
std.io.SYMLINK_FAILED.nameof:
	.asciz	"io::SYMLINK_FAILED"
	.size	std.io.SYMLINK_FAILED.nameof, 19

	.type	std.io.TOO_MANY_DESCRIPTORS,@object # @std.io.TOO_MANY_DESCRIPTORS
	.section	.data.rel.ro.std.io.TOO_MANY_DESCRIPTORS,"awG",@progbits,std.io.TOO_MANY_DESCRIPTORS,comdat
	.weak	std.io.TOO_MANY_DESCRIPTORS
	.p2align	3, 0x0
std.io.TOO_MANY_DESCRIPTORS:
	.quad	std.io.TOO_MANY_DESCRIPTORS.nameof
	.quad	24                              # 0x18
	.size	std.io.TOO_MANY_DESCRIPTORS, 16

	.type	std.io.TOO_MANY_DESCRIPTORS.nameof,@object # @std.io.TOO_MANY_DESCRIPTORS.nameof
	.section	.rodata,"a",@progbits
std.io.TOO_MANY_DESCRIPTORS.nameof:
	.asciz	"io::TOO_MANY_DESCRIPTORS"
	.size	std.io.TOO_MANY_DESCRIPTORS.nameof, 25

	.type	std.io.NAME_TOO_LONG,@object    # @std.io.NAME_TOO_LONG
	.section	.data.rel.ro.std.io.NAME_TOO_LONG,"awG",@progbits,std.io.NAME_TOO_LONG,comdat
	.weak	std.io.NAME_TOO_LONG
	.p2align	3, 0x0
std.io.NAME_TOO_LONG:
	.quad	std.io.NAME_TOO_LONG.nameof
	.quad	17                              # 0x11
	.size	std.io.NAME_TOO_LONG, 16

	.type	std.io.NAME_TOO_LONG.nameof,@object # @std.io.NAME_TOO_LONG.nameof
	.section	.rodata,"a",@progbits
std.io.NAME_TOO_LONG.nameof:
	.asciz	"io::NAME_TOO_LONG"
	.size	std.io.NAME_TOO_LONG.nameof, 18

	.type	std.io.FILE_NOT_DIR,@object     # @std.io.FILE_NOT_DIR
	.section	.data.rel.ro.std.io.FILE_NOT_DIR,"awG",@progbits,std.io.FILE_NOT_DIR,comdat
	.weak	std.io.FILE_NOT_DIR
	.p2align	3, 0x0
std.io.FILE_NOT_DIR:
	.quad	std.io.FILE_NOT_DIR.nameof
	.quad	16                              # 0x10
	.size	std.io.FILE_NOT_DIR, 16

	.type	std.io.FILE_NOT_DIR.nameof,@object # @std.io.FILE_NOT_DIR.nameof
	.section	.rodata,"a",@progbits
std.io.FILE_NOT_DIR.nameof:
	.asciz	"io::FILE_NOT_DIR"
	.size	std.io.FILE_NOT_DIR.nameof, 17

	.type	std.io.FILE_NOT_FOUND,@object   # @std.io.FILE_NOT_FOUND
	.section	.data.rel.ro.std.io.FILE_NOT_FOUND,"awG",@progbits,std.io.FILE_NOT_FOUND,comdat
	.weak	std.io.FILE_NOT_FOUND
	.p2align	3, 0x0
std.io.FILE_NOT_FOUND:
	.quad	std.io.FILE_NOT_FOUND.nameof
	.quad	18                              # 0x12
	.size	std.io.FILE_NOT_FOUND, 16

	.type	std.io.FILE_NOT_FOUND.nameof,@object # @std.io.FILE_NOT_FOUND.nameof
	.section	.rodata,"a",@progbits
std.io.FILE_NOT_FOUND.nameof:
	.asciz	"io::FILE_NOT_FOUND"
	.size	std.io.FILE_NOT_FOUND.nameof, 19

	.type	std.io.OVERFLOW,@object         # @std.io.OVERFLOW
	.section	.data.rel.ro.std.io.OVERFLOW,"awG",@progbits,std.io.OVERFLOW,comdat
	.weak	std.io.OVERFLOW
	.p2align	3, 0x0
std.io.OVERFLOW:
	.quad	std.io.OVERFLOW.nameof
	.quad	12                              # 0xc
	.size	std.io.OVERFLOW, 16

	.type	std.io.OVERFLOW.nameof,@object  # @std.io.OVERFLOW.nameof
	.section	.rodata,"a",@progbits
std.io.OVERFLOW.nameof:
	.asciz	"io::OVERFLOW"
	.size	std.io.OVERFLOW.nameof, 13

	.type	std.io.READ_ONLY,@object        # @std.io.READ_ONLY
	.section	.data.rel.ro.std.io.READ_ONLY,"awG",@progbits,std.io.READ_ONLY,comdat
	.weak	std.io.READ_ONLY
	.p2align	3, 0x0
std.io.READ_ONLY:
	.quad	std.io.READ_ONLY.nameof
	.quad	13                              # 0xd
	.size	std.io.READ_ONLY, 16

	.type	std.io.READ_ONLY.nameof,@object # @std.io.READ_ONLY.nameof
	.section	.rodata,"a",@progbits
std.io.READ_ONLY.nameof:
	.asciz	"io::READ_ONLY"
	.size	std.io.READ_ONLY.nameof, 14

	.type	std.io.UNSUPPORTED_OPERATION,@object # @std.io.UNSUPPORTED_OPERATION
	.section	.data.rel.ro.std.io.UNSUPPORTED_OPERATION,"awG",@progbits,std.io.UNSUPPORTED_OPERATION,comdat
	.weak	std.io.UNSUPPORTED_OPERATION
	.p2align	3, 0x0
std.io.UNSUPPORTED_OPERATION:
	.quad	std.io.UNSUPPORTED_OPERATION.nameof
	.quad	25                              # 0x19
	.size	std.io.UNSUPPORTED_OPERATION, 16

	.type	std.io.UNSUPPORTED_OPERATION.nameof,@object # @std.io.UNSUPPORTED_OPERATION.nameof
	.section	.rodata,"a",@progbits
std.io.UNSUPPORTED_OPERATION.nameof:
	.asciz	"io::UNSUPPORTED_OPERATION"
	.size	std.io.UNSUPPORTED_OPERATION.nameof, 26

	.type	std.io.INCOMPLETE_WRITE,@object # @std.io.INCOMPLETE_WRITE
	.section	.data.rel.ro.std.io.INCOMPLETE_WRITE,"awG",@progbits,std.io.INCOMPLETE_WRITE,comdat
	.weak	std.io.INCOMPLETE_WRITE
	.p2align	3, 0x0
std.io.INCOMPLETE_WRITE:
	.quad	std.io.INCOMPLETE_WRITE.nameof
	.quad	20                              # 0x14
	.size	std.io.INCOMPLETE_WRITE, 16

	.type	std.io.INCOMPLETE_WRITE.nameof,@object # @std.io.INCOMPLETE_WRITE.nameof
	.section	.rodata,"a",@progbits
std.io.INCOMPLETE_WRITE.nameof:
	.asciz	"io::INCOMPLETE_WRITE"
	.size	std.io.INCOMPLETE_WRITE.nameof, 21

	.type	std.io.WOULD_BLOCK,@object      # @std.io.WOULD_BLOCK
	.section	.data.rel.ro.std.io.WOULD_BLOCK,"awG",@progbits,std.io.WOULD_BLOCK,comdat
	.weak	std.io.WOULD_BLOCK
	.p2align	3, 0x0
std.io.WOULD_BLOCK:
	.quad	std.io.WOULD_BLOCK.nameof
	.quad	15                              # 0xf
	.size	std.io.WOULD_BLOCK, 16

	.type	std.io.WOULD_BLOCK.nameof,@object # @std.io.WOULD_BLOCK.nameof
	.section	.rodata,"a",@progbits
std.io.WOULD_BLOCK.nameof:
	.asciz	"io::WOULD_BLOCK"
	.size	std.io.WOULD_BLOCK.nameof, 16

	.type	std.io.UNKNOWN_ERROR,@object    # @std.io.UNKNOWN_ERROR
	.section	.data.rel.ro.std.io.UNKNOWN_ERROR,"awG",@progbits,std.io.UNKNOWN_ERROR,comdat
	.weak	std.io.UNKNOWN_ERROR
	.p2align	3, 0x0
std.io.UNKNOWN_ERROR:
	.quad	std.io.UNKNOWN_ERROR.nameof
	.quad	17                              # 0x11
	.size	std.io.UNKNOWN_ERROR, 16

	.type	std.io.UNKNOWN_ERROR.nameof,@object # @std.io.UNKNOWN_ERROR.nameof
	.section	.rodata,"a",@progbits
std.io.UNKNOWN_ERROR.nameof:
	.asciz	"io::UNKNOWN_ERROR"
	.size	std.io.UNKNOWN_ERROR.nameof, 18

	.type	std.io.FILE_IS_PIPE,@object     # @std.io.FILE_IS_PIPE
	.section	.data.rel.ro.std.io.FILE_IS_PIPE,"awG",@progbits,std.io.FILE_IS_PIPE,comdat
	.weak	std.io.FILE_IS_PIPE
	.p2align	3, 0x0
std.io.FILE_IS_PIPE:
	.quad	std.io.FILE_IS_PIPE.nameof
	.quad	16                              # 0x10
	.size	std.io.FILE_IS_PIPE, 16

	.type	std.io.FILE_IS_PIPE.nameof,@object # @std.io.FILE_IS_PIPE.nameof
	.section	.rodata,"a",@progbits
std.io.FILE_IS_PIPE.nameof:
	.asciz	"io::FILE_IS_PIPE"
	.size	std.io.FILE_IS_PIPE.nameof, 17

	.type	std.io.INVALID_POSITION,@object # @std.io.INVALID_POSITION
	.section	.data.rel.ro.std.io.INVALID_POSITION,"awG",@progbits,std.io.INVALID_POSITION,comdat
	.weak	std.io.INVALID_POSITION
	.p2align	3, 0x0
std.io.INVALID_POSITION:
	.quad	std.io.INVALID_POSITION.nameof
	.quad	20                              # 0x14
	.size	std.io.INVALID_POSITION, 16

	.type	std.io.INVALID_POSITION.nameof,@object # @std.io.INVALID_POSITION.nameof
	.section	.rodata,"a",@progbits
std.io.INVALID_POSITION.nameof:
	.asciz	"io::INVALID_POSITION"
	.size	std.io.INVALID_POSITION.nameof, 21

	.type	std.io.EOF,@object              # @std.io.EOF
	.section	.data.rel.ro.std.io.EOF,"awG",@progbits,std.io.EOF,comdat
	.weak	std.io.EOF
	.p2align	3, 0x0
std.io.EOF:
	.quad	std.io.EOF.nameof
	.quad	7                               # 0x7
	.size	std.io.EOF, 16

	.type	std.io.EOF.nameof,@object       # @std.io.EOF.nameof
	.section	.rodata,"a",@progbits
std.io.EOF.nameof:
	.asciz	"io::EOF"
	.size	std.io.EOF.nameof, 8

	.section	".note.GNU-stack","",@progbits