	.text
	.file	"std::core::string"
	.section	.text.std.core.String.trim,"axG",@progbits,std.core.String.trim,comdat
	.weak	std.core.String.trim            # -- Begin function std.core.String.trim
	.p2align	4, 0x90
	.type	std.core.String.trim,@function
std.core.String.trim:                   # @std.core.String.trim
.Lfunc_begin0:
	.file	1 "/nix/store/ihf6dmy4cll298qphlwhnmgml1y02khm-c3c-0.7.5/lib/c3/std/core" "string.c3"
	.loc	1 216 0                         # string.c3:216:0
	.cfi_startproc
# %bb.0:
	pushq	%rbp
	.cfi_def_cfa_offset 16
	.cfi_offset %rbp, -16
	movq	%rsp, %rbp
	.cfi_def_cfa_register %rbp
	subq	$64, %rsp
	movq	%rdi, -16(%rbp)
	movq	%rsi, -8(%rbp)
	movq	%rdx, -32(%rbp)
	movq	%rcx, -24(%rbp)
.Ltmp0:
	.loc	1 218 27 prologue_end           # string.c3:218:27
	movq	-16(%rbp), %rdi
	movq	-8(%rbp), %rsi
	movq	-32(%rbp), %rdx
	movq	-24(%rbp), %rcx
	.loc	1 218 12 is_stmt 0              # string.c3:218:12
	callq	std.core.String.trim_left@PLT
	movq	%rdx, -40(%rbp)
	movq	%rax, -48(%rbp)
	.loc	1 218 47                        # string.c3:218:47
	movq	-48(%rbp), %rdi
	movq	-40(%rbp), %rsi
	movq	-32(%rbp), %rdx
	movq	-24(%rbp), %rcx
	.loc	1 218 12                        # string.c3:218:12
	callq	std.core.String.trim_right@PLT
	movq	%rdx, -56(%rbp)
	movq	%rax, -64(%rbp)
	movq	-64(%rbp), %rax
	movq	-56(%rbp), %rdx
	addq	$64, %rsp
	popq	%rbp
	.cfi_def_cfa %rsp, 8
	retq
.Ltmp1:
.Lfunc_end0:
	.size	std.core.String.trim, .Lfunc_end0-std.core.String.trim
	.cfi_endproc
                                        # -- End function
	.section	.text.std.core.String.trim_left,"axG",@progbits,std.core.String.trim_left,comdat
	.weak	std.core.String.trim_left       # -- Begin function std.core.String.trim_left
	.p2align	4, 0x90
	.type	std.core.String.trim_left,@function
std.core.String.trim_left:              # @std.core.String.trim_left
.Lfunc_begin1:
	.loc	1 246 0 is_stmt 1               # string.c3:246:0
	.cfi_startproc
# %bb.0:
	pushq	%rbp
	.cfi_def_cfa_offset 16
	.cfi_offset %rbp, -16
	movq	%rsp, %rbp
	.cfi_def_cfa_register %rbp
	subq	$576, %rsp                      # imm = 0x240
	movq	%rdi, -16(%rbp)
	movq	%rsi, -8(%rbp)
	movq	%rdx, -32(%rbp)
	movq	%rcx, -24(%rbp)
.Ltmp2:
	.loc	1 248 14 prologue_end           # string.c3:248:14
	movq	$0, -40(%rbp)
	.loc	1 249 12                        # string.c3:249:12
	movq	-8(%rbp), %rax
	movq	%rax, -48(%rbp)
.LBB1_1:                                # =>This Loop Header: Depth=1
                                        #     Child Loop BB1_4 Depth 2
.Ltmp3:
	.loc	1 250 9                         # string.c3:250:9
	movq	-40(%rbp), %rcx
	xorl	%eax, %eax
                                        # kill: def $al killed $al killed $eax
	cmpq	-48(%rbp), %rcx
	movb	%al, -449(%rbp)                 # 1-byte Spill
	jae	.LBB1_11
# %bb.2:                                #   in Loop: Header=BB1_1 Depth=1
	.loc	1 250 36 is_stmt 0              # string.c3:250:36
	movq	-8(%rbp), %rcx
	movq	%rcx, -480(%rbp)                # 8-byte Spill
	movq	-16(%rbp), %rax
	movq	%rax, -472(%rbp)                # 8-byte Spill
	.loc	1 250 41                        # string.c3:250:41
	movq	-40(%rbp), %rax
	movq	%rax, -464(%rbp)                # 8-byte Spill
	cmpq	%rcx, %rax
	setae	%al
	testb	$1, %al
	jne	.LBB1_19
# %bb.3:                                #   in Loop: Header=BB1_1 Depth=1
	.loc	1 0 41                          # string.c3:0:41
	movq	-472(%rbp), %rax                # 8-byte Reload
	movq	-464(%rbp), %rcx                # 8-byte Reload
	movb	(%rax,%rcx), %al
	movb	%al, -113(%rbp)
	movq	-32(%rbp), %rax
	movq	%rax, -136(%rbp)
	movq	-24(%rbp), %rax
	movq	%rax, -128(%rbp)
.Ltmp4:
	.loc	1 146 16 is_stmt 1              # string.c3:146:16
	movq	-128(%rbp), %rax
	movq	%rax, -488(%rbp)                # 8-byte Spill
	movq	$0, -152(%rbp)
.LBB1_4:                                #   Parent Loop BB1_1 Depth=1
                                        # =>  This Inner Loop Header: Depth=2
	.loc	1 0 16 is_stmt 0                # string.c3:0:16
	movq	-488(%rbp), %rax                # 8-byte Reload
	.loc	1 146 16                        # string.c3:146:16
	cmpq	%rax, -152(%rbp)
	jae	.LBB1_9
# %bb.5:                                #   in Loop: Header=BB1_4 Depth=2
.Ltmp5:
	.loc	1 146 16                        # string.c3:146:16
	movq	-128(%rbp), %rcx
	movq	%rcx, -512(%rbp)                # 8-byte Spill
	movq	-136(%rbp), %rax
	movq	%rax, -504(%rbp)                # 8-byte Spill
	movq	-152(%rbp), %rax
	movq	%rax, -496(%rbp)                # 8-byte Spill
	cmpq	%rcx, %rax
	setae	%al
	testb	$1, %al
	jne	.LBB1_20
# %bb.6:                                #   in Loop: Header=BB1_4 Depth=2
	.loc	1 0 16                          # string.c3:0:16
	movq	-504(%rbp), %rax                # 8-byte Reload
	movq	-496(%rbp), %rcx                # 8-byte Reload
	.loc	1 146 16                        # string.c3:146:16
	movb	(%rax,%rcx), %al
	movb	%al, -153(%rbp)
	.loc	1 146 25                        # string.c3:146:25
	movb	-153(%rbp), %al
	cmpb	-113(%rbp), %al
	jne	.LBB1_8
# %bb.7:                                #   in Loop: Header=BB1_1 Depth=1
	.loc	1 146 41                        # string.c3:146:41
	movb	$1, -137(%rbp)
	jmp	.LBB1_10
.Ltmp6:
.LBB1_8:                                #   in Loop: Header=BB1_4 Depth=2
	.loc	1 146 16                        # string.c3:146:16
	movq	-152(%rbp), %rax
	addq	$1, %rax
	movq	%rax, -152(%rbp)
	jmp	.LBB1_4
.Ltmp7:
.LBB1_9:                                #   in Loop: Header=BB1_1 Depth=1
	.loc	1 147 9 is_stmt 1               # string.c3:147:9
	movb	$0, -137(%rbp)
.LBB1_10:                               #   in Loop: Header=BB1_1 Depth=1
	movb	-137(%rbp), %al
	movb	%al, -449(%rbp)                 # 1-byte Spill
.LBB1_11:                               #   in Loop: Header=BB1_1 Depth=1
	.loc	1 0 9 is_stmt 0                 # string.c3:0:9
	movb	-449(%rbp), %al                 # 1-byte Reload
	.loc	1 147 9                         # string.c3:147:9
	testb	$1, %al
	jne	.LBB1_12
	jmp	.LBB1_13
.Ltmp8:
.LBB1_12:                               #   in Loop: Header=BB1_1 Depth=1
	.loc	1 250 59 is_stmt 1              # string.c3:250:59
	movq	-40(%rbp), %rax
	addq	$1, %rax
	movq	%rax, -40(%rbp)
	jmp	.LBB1_1
.Ltmp9:
.LBB1_13:
	.loc	1 251 6                         # string.c3:251:6
	movq	-40(%rbp), %rax
	cmpq	-48(%rbp), %rax
	jne	.LBB1_17
# %bb.14:
	.loc	1 251 27 is_stmt 0              # string.c3:251:27
	movq	-16(%rbp), %rax
	movq	%rax, -528(%rbp)                # 8-byte Spill
	movq	-8(%rbp), %rcx
	movq	%rcx, -520(%rbp)                # 8-byte Spill
	xorl	%eax, %eax
                                        # kill: def $rax killed $eax
	cmpq	%rcx, %rax
	setg	%al
	testb	$1, %al
	jne	.LBB1_21
# %bb.15:
	.loc	1 0 27                          # string.c3:0:27
	movq	-520(%rbp), %rax                # 8-byte Reload
	.loc	1 251 27                        # string.c3:251:27
	cmpq	$0, %rax
	setl	%al
	testb	$1, %al
	jne	.LBB1_22
# %bb.16:
	.loc	1 0 27                          # string.c3:0:27
	movq	-528(%rbp), %rax                # 8-byte Reload
	movq	%rax, -368(%rbp)
	movq	$0, -360(%rbp)
	movq	-368(%rbp), %rax
	movq	-360(%rbp), %rdx
	addq	$576, %rsp                      # imm = 0x240
	popq	%rbp
	.cfi_def_cfa %rsp, 8
	retq
.LBB1_17:
	.cfi_def_cfa %rbp, 16
	.loc	1 252 9 is_stmt 1               # string.c3:252:9
	movq	-16(%rbp), %rax
	movq	%rax, -552(%rbp)                # 8-byte Spill
	movq	-8(%rbp), %rcx
	movq	%rcx, -544(%rbp)                # 8-byte Spill
	.loc	1 252 14 is_stmt 0              # string.c3:252:14
	movq	-40(%rbp), %rax
	movq	%rax, -536(%rbp)                # 8-byte Spill
	cmpq	%rcx, %rax
	seta	%al
	testb	$1, %al
	jne	.LBB1_23
# %bb.18:
	.loc	1 0 14                          # string.c3:0:14
	movq	-536(%rbp), %rdx                # 8-byte Reload
	movq	-552(%rbp), %rax                # 8-byte Reload
	movq	-544(%rbp), %rcx                # 8-byte Reload
	.loc	1 252 9                         # string.c3:252:9
	subq	%rdx, %rcx
	addq	%rdx, %rax
	movq	%rcx, -440(%rbp)
	movq	%rax, -448(%rbp)
	movq	-448(%rbp), %rax
	movq	-440(%rbp), %rdx
	addq	$576, %rsp                      # imm = 0x240
	popq	%rbp
	.cfi_def_cfa %rsp, 8
	retq
.LBB1_19:
	.cfi_def_cfa %rbp, 16
	.loc	1 0 9                           # string.c3:0:9
	movq	-464(%rbp), %rcx                # 8-byte Reload
	movq	-480(%rbp), %rax                # 8-byte Reload
	movq	%rax, -56(%rbp)
	movq	($ct.ulong)@GOTPCREL(%rip), %rax
	movq	%rcx, -64(%rbp)
	movq	%rax, -88(%rbp)
	leaq	-56(%rbp), %rcx
	movq	%rcx, -96(%rbp)
	movq	%rax, -72(%rbp)
	leaq	-64(%rbp), %rax
	movq	%rax, -80(%rbp)
	leaq	-96(%rbp), %rax
	movq	%rax, -112(%rbp)
	movq	$2, -104(%rbp)
.Ltmp10:
	.loc	1 250 41 is_stmt 1              # string.c3:250:41
	leaq	.panic_msg(%rip), %rdi
	movl	$59, %esi
	leaq	.file(%rip), %rdx
	movl	$9, %r9d
	leaq	.func(%rip), %r8
	leaq	-112(%rbp), %rax
	movq	%r9, %rcx
	movl	$250, (%rsp)
	movq	(%rax), %r10
	movq	%r10, 8(%rsp)
	movq	8(%rax), %rax
	movq	%rax, 16(%rsp)
	callq	std.core.builtin.panicf@PLT
.LBB1_20:
	.loc	1 0 41 is_stmt 0                # string.c3:0:41
	movq	-496(%rbp), %rcx                # 8-byte Reload
	movq	-512(%rbp), %rax                # 8-byte Reload
	movq	%rax, -168(%rbp)
	movq	($ct.ulong)@GOTPCREL(%rip), %rax
	movq	%rcx, -176(%rbp)
	movq	%rax, -200(%rbp)
	leaq	-168(%rbp), %rcx
	movq	%rcx, -208(%rbp)
	movq	%rax, -184(%rbp)
	leaq	-176(%rbp), %rax
	movq	%rax, -192(%rbp)
	leaq	-208(%rbp), %rax
	movq	%rax, -224(%rbp)
	movq	$2, -216(%rbp)
.Ltmp11:
	.loc	1 146 16 is_stmt 1              # string.c3:146:16
	leaq	.panic_msg(%rip), %rdi
	movl	$59, %esi
	leaq	.file(%rip), %rdx
	movl	$9, %r9d
	leaq	.func(%rip), %r8
	leaq	-224(%rbp), %rax
	movq	%r9, %rcx
	movl	$146, (%rsp)
	movq	(%rax), %r10
	movq	%r10, 8(%rsp)
	movq	8(%rax), %rax
	movq	%rax, 16(%rsp)
	callq	std.core.builtin.panicf@PLT
.Ltmp12:
.LBB1_21:
	.loc	1 0 16 is_stmt 0                # string.c3:0:16
	movq	-520(%rbp), %rax                # 8-byte Reload
	movq	%rax, -232(%rbp)
	movq	($ct.long)@GOTPCREL(%rip), %rax
	movq	$0, -240(%rbp)
	movq	%rax, -264(%rbp)
	leaq	-232(%rbp), %rcx
	movq	%rcx, -272(%rbp)
	movq	%rax, -248(%rbp)
	leaq	-240(%rbp), %rax
	movq	%rax, -256(%rbp)
	leaq	-272(%rbp), %rax
	movq	%rax, -288(%rbp)
	movq	$2, -280(%rbp)
	.loc	1 251 27 is_stmt 1              # string.c3:251:27
	leaq	.panic_msg.1(%rip), %rdi
	movl	$61, %esi
	leaq	.file(%rip), %rdx
	movl	$9, %r9d
	leaq	.func(%rip), %r8
	leaq	-288(%rbp), %rax
	movq	%r9, %rcx
	movl	$251, (%rsp)
	movq	(%rax), %r10
	movq	%r10, 8(%rsp)
	movq	8(%rax), %rax
	movq	%rax, 16(%rsp)
	callq	std.core.builtin.panicf@PLT
.LBB1_22:
	.loc	1 0 27 is_stmt 0                # string.c3:0:27
	movq	-520(%rbp), %rcx                # 8-byte Reload
	movq	$-1, -296(%rbp)
	movq	($ct.long)@GOTPCREL(%rip), %rax
	movq	%rcx, -304(%rbp)
	movq	%rax, -328(%rbp)
	leaq	-296(%rbp), %rcx
	movq	%rcx, -336(%rbp)
	movq	%rax, -312(%rbp)
	leaq	-304(%rbp), %rax
	movq	%rax, -320(%rbp)
	leaq	-336(%rbp), %rax
	movq	%rax, -352(%rbp)
	movq	$2, -344(%rbp)
	.loc	1 251 27                        # string.c3:251:27
	leaq	.panic_msg.2(%rip), %rdi
	movl	$60, %esi
	leaq	.file(%rip), %rdx
	movl	$9, %r9d
	leaq	.func(%rip), %r8
	leaq	-352(%rbp), %rax
	movq	%r9, %rcx
	movl	$251, (%rsp)
	movq	(%rax), %r10
	movq	%r10, 8(%rsp)
	movq	8(%rax), %rax
	movq	%rax, 16(%rsp)
	callq	std.core.builtin.panicf@PLT
.LBB1_23:
	.loc	1 0 27                          # string.c3:0:27
	movq	-536(%rbp), %rcx                # 8-byte Reload
	movq	-544(%rbp), %rax                # 8-byte Reload
	movq	%rax, -376(%rbp)
	movq	($ct.ulong)@GOTPCREL(%rip), %rax
	movq	%rcx, -384(%rbp)
	movq	%rax, -408(%rbp)
	leaq	-376(%rbp), %rcx
	movq	%rcx, -416(%rbp)
	movq	%rax, -392(%rbp)
	leaq	-384(%rbp), %rax
	movq	%rax, -400(%rbp)
	leaq	-416(%rbp), %rax
	movq	%rax, -432(%rbp)
	movq	$2, -424(%rbp)
	.loc	1 252 9 is_stmt 1               # string.c3:252:9
	leaq	.panic_msg.1(%rip), %rdi
	movl	$61, %esi
	leaq	.file(%rip), %rdx
	movl	$9, %r9d
	leaq	.func(%rip), %r8
	leaq	-432(%rbp), %rax
	movq	%r9, %rcx
	movl	$252, (%rsp)
	movq	(%rax), %r10
	movq	%r10, 8(%rsp)
	movq	8(%rax), %rax
	movq	%rax, 16(%rsp)
	callq	std.core.builtin.panicf@PLT
.Ltmp13:
.Lfunc_end1:
	.size	std.core.String.trim_left, .Lfunc_end1-std.core.String.trim_left
	.cfi_endproc
                                        # -- End function
	.section	.text.std.core.String.trim_right,"axG",@progbits,std.core.String.trim_right,comdat
	.weak	std.core.String.trim_right      # -- Begin function std.core.String.trim_right
	.p2align	4, 0x90
	.type	std.core.String.trim_right,@function
std.core.String.trim_right:             # @std.core.String.trim_right
.Lfunc_begin2:
	.loc	1 263 0                         # string.c3:263:0
	.cfi_startproc
# %bb.0:
	pushq	%rbp
	.cfi_def_cfa_offset 16
	.cfi_offset %rbp, -16
	movq	%rsp, %rbp
	.cfi_def_cfa_register %rbp
	subq	$576, %rsp                      # imm = 0x240
	movq	%rdi, -16(%rbp)
	movq	%rsi, -8(%rbp)
	movq	%rdx, -32(%rbp)
	movq	%rcx, -24(%rbp)
.Ltmp14:
	.loc	1 265 12 prologue_end           # string.c3:265:12
	movq	-8(%rbp), %rax
	movq	%rax, -40(%rbp)
.LBB2_1:                                # =>This Loop Header: Depth=1
                                        #     Child Loop BB2_5 Depth 2
.Ltmp15:
	.loc	1 266 9                         # string.c3:266:9
	xorl	%eax, %eax
                                        # kill: def $al killed $al killed $eax
	xorl	%ecx, %ecx
                                        # kill: def $rcx killed $ecx
	cmpq	-40(%rbp), %rcx
	movb	%al, -449(%rbp)                 # 1-byte Spill
	jae	.LBB2_12
# %bb.2:                                #   in Loop: Header=BB2_1 Depth=1
	.loc	1 266 32 is_stmt 0              # string.c3:266:32
	movq	-8(%rbp), %rax
	movq	%rax, -480(%rbp)                # 8-byte Spill
	movq	-16(%rbp), %rax
	movq	%rax, -472(%rbp)                # 8-byte Spill
	.loc	1 266 37                        # string.c3:266:37
	movq	-40(%rbp), %rax
	subq	$1, %rax
	movq	%rax, -464(%rbp)                # 8-byte Spill
	cmpq	$0, %rax
	setl	%al
	testb	$1, %al
	jne	.LBB2_18
# %bb.3:                                #   in Loop: Header=BB2_1 Depth=1
	.loc	1 0 37                          # string.c3:0:37
	movq	-464(%rbp), %rax                # 8-byte Reload
	movq	-480(%rbp), %rcx                # 8-byte Reload
	.loc	1 266 37                        # string.c3:266:37
	cmpq	%rcx, %rax
	setge	%al
	testb	$1, %al
	jne	.LBB2_19
# %bb.4:                                #   in Loop: Header=BB2_1 Depth=1
	.loc	1 0 37                          # string.c3:0:37
	movq	-472(%rbp), %rax                # 8-byte Reload
	movq	-464(%rbp), %rcx                # 8-byte Reload
	movb	(%rax,%rcx), %al
	movb	%al, -145(%rbp)
	movq	-32(%rbp), %rax
	movq	%rax, -168(%rbp)
	movq	-24(%rbp), %rax
	movq	%rax, -160(%rbp)
.Ltmp16:
	.loc	1 146 16 is_stmt 1              # string.c3:146:16
	movq	-160(%rbp), %rax
	movq	%rax, -488(%rbp)                # 8-byte Spill
	movq	$0, -184(%rbp)
.LBB2_5:                                #   Parent Loop BB2_1 Depth=1
                                        # =>  This Inner Loop Header: Depth=2
	.loc	1 0 16 is_stmt 0                # string.c3:0:16
	movq	-488(%rbp), %rax                # 8-byte Reload
	.loc	1 146 16                        # string.c3:146:16
	cmpq	%rax, -184(%rbp)
	jae	.LBB2_10
# %bb.6:                                #   in Loop: Header=BB2_5 Depth=2
.Ltmp17:
	.loc	1 146 16                        # string.c3:146:16
	movq	-160(%rbp), %rcx
	movq	%rcx, -512(%rbp)                # 8-byte Spill
	movq	-168(%rbp), %rax
	movq	%rax, -504(%rbp)                # 8-byte Spill
	movq	-184(%rbp), %rax
	movq	%rax, -496(%rbp)                # 8-byte Spill
	cmpq	%rcx, %rax
	setae	%al
	testb	$1, %al
	jne	.LBB2_20
# %bb.7:                                #   in Loop: Header=BB2_5 Depth=2
	.loc	1 0 16                          # string.c3:0:16
	movq	-504(%rbp), %rax                # 8-byte Reload
	movq	-496(%rbp), %rcx                # 8-byte Reload
	.loc	1 146 16                        # string.c3:146:16
	movb	(%rax,%rcx), %al
	movb	%al, -185(%rbp)
	.loc	1 146 25                        # string.c3:146:25
	movb	-185(%rbp), %al
	cmpb	-145(%rbp), %al
	jne	.LBB2_9
# %bb.8:                                #   in Loop: Header=BB2_1 Depth=1
	.loc	1 146 41                        # string.c3:146:41
	movb	$1, -169(%rbp)
	jmp	.LBB2_11
.Ltmp18:
.LBB2_9:                                #   in Loop: Header=BB2_5 Depth=2
	.loc	1 146 16                        # string.c3:146:16
	movq	-184(%rbp), %rax
	addq	$1, %rax
	movq	%rax, -184(%rbp)
	jmp	.LBB2_5
.Ltmp19:
.LBB2_10:                               #   in Loop: Header=BB2_1 Depth=1
	.loc	1 147 9 is_stmt 1               # string.c3:147:9
	movb	$0, -169(%rbp)
.LBB2_11:                               #   in Loop: Header=BB2_1 Depth=1
	movb	-169(%rbp), %al
	movb	%al, -449(%rbp)                 # 1-byte Spill
.LBB2_12:                               #   in Loop: Header=BB2_1 Depth=1
	.loc	1 0 9 is_stmt 0                 # string.c3:0:9
	movb	-449(%rbp), %al                 # 1-byte Reload
	.loc	1 147 9                         # string.c3:147:9
	testb	$1, %al
	jne	.LBB2_13
	jmp	.LBB2_14
.Ltmp20:
.LBB2_13:                               #   in Loop: Header=BB2_1 Depth=1
	.loc	1 266 57 is_stmt 1              # string.c3:266:57
	movq	-40(%rbp), %rax
	subq	$1, %rax
	movq	%rax, -40(%rbp)
	jmp	.LBB2_1
.Ltmp21:
.LBB2_14:
	.loc	1 267 9                         # string.c3:267:9
	movq	-16(%rbp), %rax
	movq	%rax, -528(%rbp)                # 8-byte Spill
	movq	-8(%rbp), %rcx
	movq	%rcx, -520(%rbp)                # 8-byte Spill
	.loc	1 267 14 is_stmt 0              # string.c3:267:14
	xorl	%eax, %eax
                                        # kill: def $rax killed $eax
	cmpq	%rcx, %rax
	seta	%al
	testb	$1, %al
	jne	.LBB2_21
# %bb.15:
	.loc	1 267 15                        # string.c3:267:15
	movq	-40(%rbp), %rcx
	addq	$0, %rcx
	movq	%rcx, -544(%rbp)                # 8-byte Spill
	xorl	%eax, %eax
                                        # kill: def $rax killed $eax
	cmpq	%rcx, %rax
	seta	%al
	subq	$0, %rcx
	movq	%rcx, -536(%rbp)                # 8-byte Spill
	testb	$1, %al
	jne	.LBB2_22
# %bb.16:
	.loc	1 0 15                          # string.c3:0:15
	movq	-544(%rbp), %rcx                # 8-byte Reload
	movq	-520(%rbp), %rax                # 8-byte Reload
	.loc	1 267 9                         # string.c3:267:9
	cmpq	%rcx, %rax
	setb	%al
	subq	$1, %rcx
	movq	%rcx, -552(%rbp)                # 8-byte Spill
	testb	$1, %al
	jne	.LBB2_23
# %bb.17:
	.loc	1 0 9                           # string.c3:0:9
	movq	-528(%rbp), %rax                # 8-byte Reload
	movq	-544(%rbp), %rcx                # 8-byte Reload
	movq	%rcx, -440(%rbp)
	movq	%rax, -448(%rbp)
	movq	-448(%rbp), %rax
	movq	-440(%rbp), %rdx
	addq	$576, %rsp                      # imm = 0x240
	popq	%rbp
	.cfi_def_cfa %rsp, 8
	retq
.LBB2_18:
	.cfi_def_cfa %rbp, 16
	movq	-464(%rbp), %rax                # 8-byte Reload
	movq	%rax, -48(%rbp)
	movq	($ct.long)@GOTPCREL(%rip), %rax
	movq	%rax, -56(%rbp)
	leaq	-48(%rbp), %rax
	movq	%rax, -64(%rbp)
	leaq	-64(%rbp), %rax
	movq	%rax, -80(%rbp)
	movq	$1, -72(%rbp)
.Ltmp22:
	.loc	1 266 37 is_stmt 1              # string.c3:266:37
	leaq	.panic_msg.3(%rip), %rdi
	movl	$38, %esi
	leaq	.file(%rip), %rdx
	movl	$9, %ecx
	leaq	.func.4(%rip), %r8
	movl	$10, %r9d
	leaq	-80(%rbp), %rax
	movl	$266, (%rsp)                    # imm = 0x10A
	movq	(%rax), %r10
	movq	%r10, 8(%rsp)
	movq	8(%rax), %rax
	movq	%rax, 16(%rsp)
	callq	std.core.builtin.panicf@PLT
.LBB2_19:
	.loc	1 0 37 is_stmt 0                # string.c3:0:37
	movq	-464(%rbp), %rcx                # 8-byte Reload
	movq	-480(%rbp), %rax                # 8-byte Reload
	movq	%rax, -88(%rbp)
	movq	($ct.long)@GOTPCREL(%rip), %rax
	movq	%rcx, -96(%rbp)
	movq	%rax, -120(%rbp)
	leaq	-88(%rbp), %rcx
	movq	%rcx, -128(%rbp)
	movq	%rax, -104(%rbp)
	leaq	-96(%rbp), %rax
	movq	%rax, -112(%rbp)
	leaq	-128(%rbp), %rax
	movq	%rax, -144(%rbp)
	movq	$2, -136(%rbp)
	.loc	1 266 37                        # string.c3:266:37
	leaq	.panic_msg(%rip), %rdi
	movl	$59, %esi
	leaq	.file(%rip), %rdx
	movl	$9, %ecx
	leaq	.func.4(%rip), %r8
	movl	$10, %r9d
	leaq	-144(%rbp), %rax
	movl	$266, (%rsp)                    # imm = 0x10A
	movq	(%rax), %r10
	movq	%r10, 8(%rsp)
	movq	8(%rax), %rax
	movq	%rax, 16(%rsp)
	callq	std.core.builtin.panicf@PLT
.LBB2_20:
	.loc	1 0 37                          # string.c3:0:37
	movq	-496(%rbp), %rcx                # 8-byte Reload
	movq	-512(%rbp), %rax                # 8-byte Reload
	movq	%rax, -200(%rbp)
	movq	($ct.ulong)@GOTPCREL(%rip), %rax
	movq	%rcx, -208(%rbp)
	movq	%rax, -232(%rbp)
	leaq	-200(%rbp), %rcx
	movq	%rcx, -240(%rbp)
	movq	%rax, -216(%rbp)
	leaq	-208(%rbp), %rax
	movq	%rax, -224(%rbp)
	leaq	-240(%rbp), %rax
	movq	%rax, -256(%rbp)
	movq	$2, -248(%rbp)
.Ltmp23:
	.loc	1 146 16 is_stmt 1              # string.c3:146:16
	leaq	.panic_msg(%rip), %rdi
	movl	$59, %esi
	leaq	.file(%rip), %rdx
	movl	$9, %ecx
	leaq	.func.4(%rip), %r8
	movl	$10, %r9d
	leaq	-256(%rbp), %rax
	movl	$146, (%rsp)
	movq	(%rax), %r10
	movq	%r10, 8(%rsp)
	movq	8(%rax), %rax
	movq	%rax, 16(%rsp)
	callq	std.core.builtin.panicf@PLT
.Ltmp24:
.LBB2_21:
	.loc	1 0 16 is_stmt 0                # string.c3:0:16
	movq	-520(%rbp), %rax                # 8-byte Reload
	movq	%rax, -264(%rbp)
	movq	($ct.ulong)@GOTPCREL(%rip), %rax
	movq	$0, -272(%rbp)
	movq	%rax, -296(%rbp)
	leaq	-264(%rbp), %rcx
	movq	%rcx, -304(%rbp)
	movq	%rax, -280(%rbp)
	leaq	-272(%rbp), %rax
	movq	%rax, -288(%rbp)
	leaq	-304(%rbp), %rax
	movq	%rax, -320(%rbp)
	movq	$2, -312(%rbp)
	.loc	1 267 9 is_stmt 1               # string.c3:267:9
	leaq	.panic_msg.1(%rip), %rdi
	movl	$61, %esi
	leaq	.file(%rip), %rdx
	movl	$9, %ecx
	leaq	.func.4(%rip), %r8
	movl	$10, %r9d
	leaq	-320(%rbp), %rax
	movl	$267, (%rsp)                    # imm = 0x10B
	movq	(%rax), %r10
	movq	%r10, 8(%rsp)
	movq	8(%rax), %rax
	movq	%rax, 16(%rsp)
	callq	std.core.builtin.panicf@PLT
.LBB2_22:
	.loc	1 0 9 is_stmt 0                 # string.c3:0:9
	movq	-536(%rbp), %rax                # 8-byte Reload
	movq	%rax, -328(%rbp)
	movq	($ct.long)@GOTPCREL(%rip), %rax
	movq	%rax, -344(%rbp)
	leaq	-328(%rbp), %rax
	movq	%rax, -352(%rbp)
	leaq	-352(%rbp), %rax
	movq	%rax, -368(%rbp)
	movq	$1, -360(%rbp)
	.loc	1 267 9                         # string.c3:267:9
	leaq	.panic_msg.5(%rip), %rdi
	movl	$43, %esi
	leaq	.file(%rip), %rdx
	movl	$9, %ecx
	leaq	.func.4(%rip), %r8
	movl	$10, %r9d
	leaq	-368(%rbp), %rax
	movl	$267, (%rsp)                    # imm = 0x10B
	movq	(%rax), %r10
	movq	%r10, 8(%rsp)
	movq	8(%rax), %rax
	movq	%rax, 16(%rsp)
	callq	std.core.builtin.panicf@PLT
.LBB2_23:
	.loc	1 0 9                           # string.c3:0:9
	movq	-520(%rbp), %rcx                # 8-byte Reload
	movq	-552(%rbp), %rax                # 8-byte Reload
	movq	%rax, -376(%rbp)
	movq	($ct.ulong)@GOTPCREL(%rip), %rax
	movq	%rcx, -384(%rbp)
	movq	%rax, -408(%rbp)
	leaq	-376(%rbp), %rcx
	movq	%rcx, -416(%rbp)
	movq	%rax, -392(%rbp)
	leaq	-384(%rbp), %rax
	movq	%rax, -400(%rbp)
	leaq	-416(%rbp), %rax
	movq	%rax, -432(%rbp)
	movq	$2, -424(%rbp)
	.loc	1 267 9                         # string.c3:267:9
	leaq	.panic_msg.2(%rip), %rdi
	movl	$60, %esi
	leaq	.file(%rip), %rdx
	movl	$9, %ecx
	leaq	.func.4(%rip), %r8
	movl	$10, %r9d
	leaq	-432(%rbp), %rax
	movl	$267, (%rsp)                    # imm = 0x10B
	movq	(%rax), %r10
	movq	%r10, 8(%rsp)
	movq	8(%rax), %rax
	movq	%rax, 16(%rsp)
	callq	std.core.builtin.panicf@PLT
.Ltmp25:
.Lfunc_end2:
	.size	std.core.String.trim_right, .Lfunc_end2-std.core.String.trim_right
	.cfi_endproc
                                        # -- End function
	.section	.text.std.core.String.split,"axG",@progbits,std.core.String.split,comdat
	.weak	std.core.String.split           # -- Begin function std.core.String.split
	.p2align	4, 0x90
	.type	std.core.String.split,@function
std.core.String.split:                  # @std.core.String.split
.Lfunc_begin3:
	.loc	1 341 0 is_stmt 1               # string.c3:341:0
	.cfi_startproc
# %bb.0:
	pushq	%rbp
	.cfi_def_cfa_offset 16
	.cfi_offset %rbp, -16
	movq	%rsp, %rbp
	.cfi_def_cfa_register %rbp
	subq	$1360, %rsp                     # imm = 0x550
	movb	24(%rbp), %al
	movq	16(%rbp), %rax
	movq	$0, -736(%rbp)
	movq	$0, -704(%rbp)
	movq	$0, -680(%rbp)
	movq	$0, -184(%rbp)
	movq	%rdi, -16(%rbp)
	movq	%rsi, -8(%rbp)
	movq	%rdx, -32(%rbp)
	movq	%rcx, -24(%rbp)
	movq	%r8, -48(%rbp)
	movq	%r9, -40(%rbp)
.Ltmp26:
	.loc	1 338 11 prologue_end           # string.c3:338:11
	xorl	%eax, %eax
                                        # kill: def $rax killed $eax
	cmpq	-40(%rbp), %rax
	jb	.LBB3_2
# %bb.1:
	leaq	.panic_msg.6(%rip), %rdi
	movl	$89, %esi
	leaq	.file(%rip), %rdx
	movl	$9, %ecx
	leaq	.func.7(%rip), %r8
	movl	$5, %r9d
	movq	std.core.builtin.panic@GOTPCREL(%rip), %rax
	movl	$338, (%rsp)                    # imm = 0x152
	callq	*(%rax)
.Ltmp27:
.LBB3_2:
	.loc	1 343 17                        # string.c3:343:17
	movq	$16, -56(%rbp)
	.loc	1 344 10                        # string.c3:344:10
	movq	$0, -64(%rbp)
	movq	-32(%rbp), %rax
	movq	%rax, -88(%rbp)
	movq	-24(%rbp), %rax
	movq	%rax, -80(%rbp)
	movq	-56(%rbp), %rax
	movq	%rax, -96(%rbp)
	movq	-88(%rbp), %rax
	movq	%rax, -120(%rbp)
	movq	-80(%rbp), %rax
	movq	%rax, -112(%rbp)
	movq	-96(%rbp), %rax
	movq	%rax, -128(%rbp)
	movq	-120(%rbp), %rax
	movq	%rax, -144(%rbp)
	movq	-112(%rbp), %rax
	movq	%rax, -136(%rbp)
.Ltmp28:
	.file	2 "/nix/store/ihf6dmy4cll298qphlwhnmgml1y02khm-c3c-0.7.5/lib/c3/std/core" "mem_allocator.c3"
	.loc	2 304 55                        # mem_allocator.c3:304:55
	movq	-128(%rbp), %rax
	.loc	2 304 40 is_stmt 0              # mem_allocator.c3:304:40
	shlq	$4, %rax
	movq	%rax, -152(%rbp)
.Ltmp29:
	.loc	2 80 6 is_stmt 1                # mem_allocator.c3:80:6
	cmpq	$0, -152(%rbp)
	jne	.LBB3_4
# %bb.3:
	.loc	2 80 20 is_stmt 0               # mem_allocator.c3:80:20
	movq	$0, -160(%rbp)
	jmp	.LBB3_22
.LBB3_4:
	.loc	2 86 28 is_stmt 1               # mem_allocator.c3:86:28
	movq	-152(%rbp), %rax
	movq	%rax, -928(%rbp)                # 8-byte Spill
	.loc	2 38 12                         # mem_allocator.c3:38:12
	movb	$1, %al
	testb	$1, %al
	movb	%al, -913(%rbp)                 # 1-byte Spill
	jne	.LBB3_8
# %bb.5:
	.loc	2 0 12 is_stmt 0                # mem_allocator.c3:0:12
	movq	$0, -168(%rbp)
.Ltmp30:
	.file	3 "/nix/store/ihf6dmy4cll298qphlwhnmgml1y02khm-c3c-0.7.5/lib/c3/std/math" "math.c3"
	.loc	3 992 9 is_stmt 1               # math.c3:992:9
	xorl	%eax, %eax
                                        # kill: def $al killed $al killed $eax
	xorl	%ecx, %ecx
                                        # kill: def $rcx killed $ecx
	cmpq	-168(%rbp), %rcx
	movb	%al, -929(%rbp)                 # 1-byte Spill
	je	.LBB3_7
# %bb.6:
	.loc	3 992 20 is_stmt 0              # math.c3:992:20
	movq	-168(%rbp), %rax
	.loc	3 992 25                        # math.c3:992:25
	movq	-168(%rbp), %rcx
	subq	$1, %rcx
	.loc	3 992 20                        # math.c3:992:20
	andq	%rcx, %rax
	.loc	3 992 19                        # math.c3:992:19
	cmpq	$0, %rax
	sete	%al
	movb	%al, -929(%rbp)                 # 1-byte Spill
.LBB3_7:
	.loc	3 0 19                          # math.c3:0:19
	movb	-929(%rbp), %al                 # 1-byte Reload
	movb	%al, -913(%rbp)                 # 1-byte Spill
.LBB3_8:
	movb	-913(%rbp), %al                 # 1-byte Reload
	.loc	3 992 19                        # math.c3:992:19
	testb	$1, %al
	jne	.LBB3_10
.Ltmp31:
# %bb.9:
	.loc	2 86 10 is_stmt 1               # mem_allocator.c3:86:10
	leaq	.panic_msg.8(%rip), %rdi
	movl	$65, %esi
	leaq	.file.9(%rip), %rdx
	movl	$16, %ecx
	leaq	.func.7(%rip), %r8
	movl	$5, %r9d
	movq	std.core.builtin.panic@GOTPCREL(%rip), %rax
	movl	$86, (%rsp)
	callq	*(%rax)
.LBB3_10:
	movb	$1, %al
	testb	$1, %al
	jne	.LBB3_12
	jmp	.LBB3_11
.LBB3_11:
	leaq	.panic_msg.10(%rip), %rdi
	movl	$80, %esi
	leaq	.file.9(%rip), %rdx
	movl	$16, %ecx
	leaq	.func.7(%rip), %r8
	movl	$5, %r9d
	movq	std.core.builtin.panic@GOTPCREL(%rip), %rax
	movl	$86, (%rsp)
	callq	*(%rax)
.LBB3_12:
	.loc	2 0 10 is_stmt 0                # mem_allocator.c3:0:10
	movq	-928(%rbp), %rcx                # 8-byte Reload
	.loc	2 86 10                         # mem_allocator.c3:86:10
	xorl	%eax, %eax
                                        # kill: def $rax killed $eax
	cmpq	%rcx, %rax
	jb	.LBB3_14
# %bb.13:
	leaq	.panic_msg.11(%rip), %rdi
	movl	$59, %esi
	leaq	.file.9(%rip), %rdx
	movl	$16, %ecx
	leaq	.func.7(%rip), %r8
	movl	$5, %r9d
	movq	std.core.builtin.panic@GOTPCREL(%rip), %rax
	movl	$86, (%rsp)
	callq	*(%rax)
.LBB3_14:
	movq	-136(%rbp), %rax
	movq	%rax, -944(%rbp)                # 8-byte Spill
	cmpq	-184(%rbp), %rax
	je	.LBB3_16
# %bb.15:
	.loc	2 0 10                          # mem_allocator.c3:0:10
	movq	-944(%rbp), %rax                # 8-byte Reload
	movq	16(%rax), %rdi
	movq	($sel.acquire)@GOTPCREL(%rip), %rsi
	callq	.dyn_search@PLT
	movq	-944(%rbp), %rcx                # 8-byte Reload
	movq	%rax, -176(%rbp)
	movq	%rcx, -184(%rbp)
	movq	%rax, -952(%rbp)                # 8-byte Spill
	jmp	.LBB3_17
.LBB3_16:
	movq	-176(%rbp), %rax
	movq	%rax, -952(%rbp)                # 8-byte Spill
.LBB3_17:
	movq	-952(%rbp), %rax                # 8-byte Reload
	movq	%rax, -960(%rbp)                # 8-byte Spill
	cmpq	$0, %rax
	jne	.LBB3_19
# %bb.18:
	.loc	2 86 10                         # mem_allocator.c3:86:10
	leaq	.panic_msg.12(%rip), %rdi
	movl	$44, %esi
	leaq	.file.9(%rip), %rdx
	movl	$16, %ecx
	leaq	.func.7(%rip), %r8
	movl	$5, %r9d
	movq	std.core.builtin.panic@GOTPCREL(%rip), %rax
	movl	$86, (%rsp)
	callq	*(%rax)
.LBB3_19:
	.loc	2 0 10                          # mem_allocator.c3:0:10
	movq	-960(%rbp), %rax                # 8-byte Reload
	movq	-928(%rbp), %rdx                # 8-byte Reload
	movq	-144(%rbp), %rsi
	.loc	2 86 10                         # mem_allocator.c3:86:10
	leaq	-192(%rbp), %rdi
	xorl	%ecx, %ecx
	xorl	%r8d, %r8d
                                        # kill: def $r8 killed $r8d
	callq	*%rax
	movq	%rax, -968(%rbp)                # 8-byte Spill
	cmpq	$0, %rax
	sete	%al
	testb	$1, %al
	jne	.LBB3_21
# %bb.20:
	.loc	2 0 10                          # mem_allocator.c3:0:10
	movq	-968(%rbp), %rax                # 8-byte Reload
	.loc	2 86 10                         # mem_allocator.c3:86:10
	movq	%rax, -104(%rbp)
	jmp	.LBB3_24
.LBB3_21:
	movq	-192(%rbp), %rax
	movq	%rax, -160(%rbp)
.LBB3_22:
	movq	-160(%rbp), %rax
	movq	%rax, -992(%rbp)                # 8-byte Spill
.Ltmp32:
	.loc	2 304 67 is_stmt 1              # mem_allocator.c3:304:67
	movq	-128(%rbp), %rcx
	addq	$0, %rcx
	movq	%rcx, -984(%rbp)                # 8-byte Spill
	xorl	%eax, %eax
                                        # kill: def $rax killed $eax
	cmpq	%rcx, %rax
	seta	%al
	subq	$0, %rcx
	movq	%rcx, -976(%rbp)                # 8-byte Spill
	testb	$1, %al
	jne	.LBB3_109
# %bb.23:
	.loc	2 0 67 is_stmt 0                # mem_allocator.c3:0:67
	movq	-992(%rbp), %rax                # 8-byte Reload
	movq	-984(%rbp), %rcx                # 8-byte Reload
	movq	%rax, -1000(%rbp)               # 8-byte Spill
	.loc	2 304 9                         # mem_allocator.c3:304:9
	jmp	.LBB3_25
.LBB3_24:
	movq	($ct.fault)@GOTPCREL(%rip), %rax
	movq	%rax, -248(%rbp)
	leaq	-104(%rbp), %rax
	movq	%rax, -256(%rbp)
	leaq	-256(%rbp), %rax
	movq	%rax, -272(%rbp)
	movq	$1, -264(%rbp)
.Ltmp33:
	.loc	2 287 9 is_stmt 1               # mem_allocator.c3:287:9
	leaq	.panic_msg.13(%rip), %rdi
	movl	$36, %esi
	leaq	.file.9(%rip), %rdx
	movl	$16, %ecx
	leaq	.func.7(%rip), %r8
	movl	$5, %r9d
	leaq	-272(%rbp), %rax
	movl	$287, (%rsp)                    # imm = 0x11F
	movq	(%rax), %r10
	movq	%r10, 8(%rsp)
	movq	8(%rax), %rax
	movq	%rax, 16(%rsp)
	callq	std.core.builtin.panicf@PLT
.LBB3_25:
	.loc	2 0 9 is_stmt 0                 # mem_allocator.c3:0:9
	movq	-1000(%rbp), %rax               # 8-byte Reload
	.loc	2 287 9                         # mem_allocator.c3:287:9
	movq	%rax, -72(%rbp)
.Ltmp34:
	.loc	1 346 17 is_stmt 1              # string.c3:346:17
	movb	$0, -273(%rbp)
.LBB3_26:                               # =>This Inner Loop Header: Depth=1
.Ltmp35:
	.loc	1 347 10                        # string.c3:347:10
	movb	-273(%rbp), %al
	xorb	$-1, %al
	testb	$1, %al
	jne	.LBB3_27
	jmp	.LBB3_103
.LBB3_27:                               #   in Loop: Header=BB3_26 Depth=1
.Ltmp36:
	.loc	1 349 16                        # string.c3:349:16
	movq	-64(%rbp), %rcx
	.loc	1 349 21 is_stmt 0              # string.c3:349:21
	movq	16(%rbp), %rax
	subq	$1, %rax
	.loc	1 349 16                        # string.c3:349:16
	cmpq	%rcx, %rax
	sete	%cl
	cmpq	$0, %rax
	setge	%al
	andb	%cl, %al
	testb	$1, %al
	jne	.LBB3_28
	jmp	.LBB3_29
.LBB3_28:                               #   in Loop: Header=BB3_26 Depth=1
	.loc	1 349 31                        # string.c3:349:31
	movq	std.core.builtin.NOT_FOUND@GOTPCREL(%rip), %rax
	movq	%rax, -296(%rbp)
	jmp	.LBB3_35
.LBB3_29:                               #   in Loop: Header=BB3_26 Depth=1
	.loc	1 349 44                        # string.c3:349:44
	movq	-16(%rbp), %rax
	movq	%rax, -1032(%rbp)               # 8-byte Spill
	movq	-8(%rbp), %rax
	movq	%rax, -1024(%rbp)               # 8-byte Spill
	.loc	1 349 58                        # string.c3:349:58
	movq	-48(%rbp), %rax
	movq	%rax, -1016(%rbp)               # 8-byte Spill
	movq	-40(%rbp), %rcx
	movq	%rcx, -1008(%rbp)               # 8-byte Spill
	.loc	1 349 44                        # string.c3:349:44
	xorl	%eax, %eax
                                        # kill: def $rax killed $eax
	cmpq	%rcx, %rax
	jb	.LBB3_31
# %bb.30:
	leaq	.panic_msg.14(%rip), %rdi
	movl	$71, %esi
	leaq	.file(%rip), %rdx
	movl	$9, %ecx
	leaq	.func.7(%rip), %r8
	movl	$5, %r9d
	movq	std.core.builtin.panic@GOTPCREL(%rip), %rax
	movl	$349, (%rsp)                    # imm = 0x15D
	callq	*(%rax)
.LBB3_31:                               #   in Loop: Header=BB3_26 Depth=1
	.loc	1 0 44                          # string.c3:0:44
	movq	-1008(%rbp), %r8                # 8-byte Reload
	movq	-1016(%rbp), %rcx               # 8-byte Reload
	movq	-1024(%rbp), %rdx               # 8-byte Reload
	movq	-1032(%rbp), %rsi               # 8-byte Reload
	.loc	1 349 44                        # string.c3:349:44
	leaq	-304(%rbp), %rdi
	callq	std.core.String.index_of@PLT
	movq	%rax, -1040(%rbp)               # 8-byte Spill
	cmpq	$0, %rax
	sete	%al
	testb	$1, %al
	jne	.LBB3_33
# %bb.32:                               #   in Loop: Header=BB3_26 Depth=1
	.loc	1 0 44                          # string.c3:0:44
	movq	-1040(%rbp), %rax               # 8-byte Reload
	.loc	1 349 44                        # string.c3:349:44
	movq	%rax, -296(%rbp)
	jmp	.LBB3_35
.LBB3_33:                               #   in Loop: Header=BB3_26 Depth=1
	movq	-304(%rbp), %rax
	movq	%rax, -1048(%rbp)               # 8-byte Spill
# %bb.34:                               #   in Loop: Header=BB3_26 Depth=1
	.loc	1 0 44                          # string.c3:0:44
	movq	-1048(%rbp), %rax               # 8-byte Reload
	.loc	1 349 44                        # string.c3:349:44
	movq	%rax, -288(%rbp)
	movq	$0, -296(%rbp)
.LBB3_35:                               #   in Loop: Header=BB3_26 Depth=1
	.loc	1 351 7 is_stmt 1               # string.c3:351:7
	cmpq	$0, -296(%rbp)
	jne	.LBB3_41
# %bb.36:                               #   in Loop: Header=BB3_26 Depth=1
.Ltmp37:
	.loc	1 353 10                        # string.c3:353:10
	movq	-16(%rbp), %rax
	movq	%rax, -1064(%rbp)               # 8-byte Spill
	movq	-8(%rbp), %rcx
	movq	%rcx, -1056(%rbp)               # 8-byte Spill
	.loc	1 353 15 is_stmt 0              # string.c3:353:15
	xorl	%eax, %eax
                                        # kill: def $rax killed $eax
	cmpq	%rcx, %rax
	seta	%al
	testb	$1, %al
	jne	.LBB3_110
# %bb.37:                               #   in Loop: Header=BB3_26 Depth=1
	.loc	1 353 16                        # string.c3:353:16
	movq	-288(%rbp), %rcx
	addq	$0, %rcx
	movq	%rcx, -1080(%rbp)               # 8-byte Spill
	xorl	%eax, %eax
                                        # kill: def $rax killed $eax
	cmpq	%rcx, %rax
	seta	%al
	subq	$0, %rcx
	movq	%rcx, -1072(%rbp)               # 8-byte Spill
	testb	$1, %al
	jne	.LBB3_111
# %bb.38:                               #   in Loop: Header=BB3_26 Depth=1
	.loc	1 0 16                          # string.c3:0:16
	movq	-1080(%rbp), %rcx               # 8-byte Reload
	movq	-1056(%rbp), %rax               # 8-byte Reload
	.loc	1 353 10                        # string.c3:353:10
	cmpq	%rcx, %rax
	setb	%al
	subq	$1, %rcx
	movq	%rcx, -1088(%rbp)               # 8-byte Spill
	testb	$1, %al
	jne	.LBB3_112
# %bb.39:                               #   in Loop: Header=BB3_26 Depth=1
	.loc	1 0 10                          # string.c3:0:10
	movq	-1064(%rbp), %rax               # 8-byte Reload
	movq	-1080(%rbp), %rcx               # 8-byte Reload
	.loc	1 353 10                        # string.c3:353:10
	movq	%rcx, -312(%rbp)
	movq	%rax, -320(%rbp)
	.loc	1 354 11 is_stmt 1              # string.c3:354:11
	movq	-16(%rbp), %rax
	movq	%rax, -1112(%rbp)               # 8-byte Spill
	movq	-8(%rbp), %rcx
	movq	%rcx, -1104(%rbp)               # 8-byte Spill
	.loc	1 354 16 is_stmt 0              # string.c3:354:16
	movq	-288(%rbp), %rax
	addq	-40(%rbp), %rax
	movq	%rax, -1096(%rbp)               # 8-byte Spill
	cmpq	%rcx, %rax
	seta	%al
	testb	$1, %al
	jne	.LBB3_113
# %bb.40:                               #   in Loop: Header=BB3_26 Depth=1
	.loc	1 0 16                          # string.c3:0:16
	movq	-1096(%rbp), %rdx               # 8-byte Reload
	movq	-1112(%rbp), %rax               # 8-byte Reload
	movq	-1104(%rbp), %rcx               # 8-byte Reload
	.loc	1 354 11                        # string.c3:354:11
	subq	%rdx, %rcx
	addq	%rdx, %rax
	movq	%rcx, -8(%rbp)
	movq	%rax, -16(%rbp)
	jmp	.LBB3_42
.Ltmp38:
.LBB3_41:                               #   in Loop: Header=BB3_26 Depth=1
	.loc	1 358 10 is_stmt 1              # string.c3:358:10
	movq	-16(%rbp), %rax
	movq	%rax, -320(%rbp)
	movq	-8(%rbp), %rax
	movq	%rax, -312(%rbp)
	.loc	1 359 14                        # string.c3:359:14
	movb	$1, -273(%rbp)
.Ltmp39:
.LBB3_42:                               #   in Loop: Header=BB3_26 Depth=1
	.loc	1 361 7                         # string.c3:361:7
	xorl	%eax, %eax
                                        # kill: def $al killed $al killed $eax
	cmpq	$0, -312(%rbp)
	movb	%al, -1113(%rbp)                # 1-byte Spill
	jne	.LBB3_44
# %bb.43:                               #   in Loop: Header=BB3_26 Depth=1
	.loc	1 361 19 is_stmt 0              # string.c3:361:19
	movb	24(%rbp), %al
	movb	%al, -1113(%rbp)                # 1-byte Spill
.LBB3_44:                               #   in Loop: Header=BB3_26 Depth=1
	.loc	1 0 19                          # string.c3:0:19
	movb	-1113(%rbp), %al                # 1-byte Reload
	.loc	1 361 19                        # string.c3:361:19
	testb	$1, %al
	jne	.LBB3_45
	jmp	.LBB3_46
.LBB3_45:                               #   in Loop: Header=BB3_26 Depth=1
.Ltmp40:
	.loc	1 363 10 is_stmt 1              # string.c3:363:10
	jmp	.LBB3_26
.Ltmp41:
.LBB3_46:                               #   in Loop: Header=BB3_26 Depth=1
	.loc	1 366 7                         # string.c3:366:7
	movq	-64(%rbp), %rax
	cmpq	-56(%rbp), %rax
	jne	.LBB3_101
# %bb.47:                               #   in Loop: Header=BB3_26 Depth=1
.Ltmp42:
	.loc	1 368 4                         # string.c3:368:4
	movq	-56(%rbp), %rax
	shlq	%rax
	movq	%rax, -56(%rbp)
	movq	-32(%rbp), %rax
	movq	%rax, -576(%rbp)
	movq	-24(%rbp), %rax
	movq	%rax, -568(%rbp)
	.loc	1 369 43                        # string.c3:369:43
	movq	-72(%rbp), %rax
	movq	%rax, -584(%rbp)
	.loc	1 369 67 is_stmt 0              # string.c3:369:67
	movq	-56(%rbp), %rax
	.loc	1 369 51                        # string.c3:369:51
	shlq	$4, %rax
	movq	%rax, -592(%rbp)
	movq	-576(%rbp), %rax
	movq	%rax, -616(%rbp)
	movq	-568(%rbp), %rax
	movq	%rax, -608(%rbp)
	movq	-584(%rbp), %rax
	movq	%rax, -624(%rbp)
	movq	-592(%rbp), %rax
	movq	%rax, -632(%rbp)
.Ltmp43:
	.loc	2 108 6 is_stmt 1               # mem_allocator.c3:108:6
	cmpq	$0, -632(%rbp)
	jne	.LBB3_59
# %bb.48:                               #   in Loop: Header=BB3_26 Depth=1
	.loc	2 0 6 is_stmt 0                 # mem_allocator.c3:0:6
	movq	-616(%rbp), %rax
	movq	%rax, -656(%rbp)
	movq	-608(%rbp), %rax
	movq	%rax, -648(%rbp)
	movq	-624(%rbp), %rax
	movq	%rax, -664(%rbp)
.Ltmp44:
	.loc	2 119 6 is_stmt 1               # mem_allocator.c3:119:6
	cmpq	$0, -664(%rbp)
	jne	.LBB3_50
# %bb.49:                               #   in Loop: Header=BB3_26 Depth=1
	.loc	2 119 18 is_stmt 0              # mem_allocator.c3:119:18
	jmp	.LBB3_58
.LBB3_50:                               #   in Loop: Header=BB3_26 Depth=1
	.loc	2 123 20 is_stmt 1              # mem_allocator.c3:123:20
	movq	-664(%rbp), %rax
	movq	%rax, -1128(%rbp)               # 8-byte Spill
	.loc	2 123 2 is_stmt 0               # mem_allocator.c3:123:2
	cmpq	$0, %rax
	jne	.LBB3_52
# %bb.51:
	leaq	.panic_msg.15(%rip), %rdi
	movl	$75, %esi
	leaq	.file.9(%rip), %rdx
	movl	$16, %ecx
	leaq	.func.7(%rip), %r8
	movl	$5, %r9d
	movq	std.core.builtin.panic@GOTPCREL(%rip), %rax
	movl	$123, (%rsp)
	callq	*(%rax)
.LBB3_52:                               #   in Loop: Header=BB3_26 Depth=1
	movq	-648(%rbp), %rax
	movq	%rax, -1136(%rbp)               # 8-byte Spill
	cmpq	-680(%rbp), %rax
	je	.LBB3_54
# %bb.53:                               #   in Loop: Header=BB3_26 Depth=1
	.loc	2 0 2                           # mem_allocator.c3:0:2
	movq	-1136(%rbp), %rax               # 8-byte Reload
	movq	16(%rax), %rdi
	movq	($sel.release)@GOTPCREL(%rip), %rsi
	callq	.dyn_search@PLT
	movq	-1136(%rbp), %rcx               # 8-byte Reload
	movq	%rax, -672(%rbp)
	movq	%rcx, -680(%rbp)
	movq	%rax, -1144(%rbp)               # 8-byte Spill
	jmp	.LBB3_55
.LBB3_54:                               #   in Loop: Header=BB3_26 Depth=1
	movq	-672(%rbp), %rax
	movq	%rax, -1144(%rbp)               # 8-byte Spill
.LBB3_55:                               #   in Loop: Header=BB3_26 Depth=1
	movq	-1144(%rbp), %rax               # 8-byte Reload
	movq	%rax, -1152(%rbp)               # 8-byte Spill
	cmpq	$0, %rax
	jne	.LBB3_57
# %bb.56:
	.loc	2 123 2                         # mem_allocator.c3:123:2
	leaq	.panic_msg.16(%rip), %rdi
	movl	$44, %esi
	leaq	.file.9(%rip), %rdx
	movl	$16, %ecx
	leaq	.func.7(%rip), %r8
	movl	$5, %r9d
	movq	std.core.builtin.panic@GOTPCREL(%rip), %rax
	movl	$123, (%rsp)
	callq	*(%rax)
.LBB3_57:                               #   in Loop: Header=BB3_26 Depth=1
	.loc	2 0 2                           # mem_allocator.c3:0:2
	movq	-1152(%rbp), %rax               # 8-byte Reload
	movq	-1128(%rbp), %rsi               # 8-byte Reload
	.loc	2 123 2                         # mem_allocator.c3:123:2
	movq	-656(%rbp), %rdi
	xorl	%edx, %edx
	callq	*%rax
.Ltmp45:
.LBB3_58:                               #   in Loop: Header=BB3_26 Depth=1
	.loc	2 111 10 is_stmt 1              # mem_allocator.c3:111:10
	movq	$0, -640(%rbp)
	jmp	.LBB3_98
.Ltmp46:
.LBB3_59:                               #   in Loop: Header=BB3_26 Depth=1
	.loc	2 113 6                         # mem_allocator.c3:113:6
	cmpq	$0, -624(%rbp)
	jne	.LBB3_78
# %bb.60:                               #   in Loop: Header=BB3_26 Depth=1
	.loc	2 113 37 is_stmt 0              # mem_allocator.c3:113:37
	movq	-632(%rbp), %rax
	movq	%rax, -1168(%rbp)               # 8-byte Spill
	.loc	2 38 12 is_stmt 1               # mem_allocator.c3:38:12
	movb	$1, %al
	testb	$1, %al
	movb	%al, -1153(%rbp)                # 1-byte Spill
	jne	.LBB3_64
# %bb.61:                               #   in Loop: Header=BB3_26 Depth=1
	.loc	2 0 12 is_stmt 0                # mem_allocator.c3:0:12
	movq	$0, -688(%rbp)
.Ltmp47:
	.loc	3 992 9 is_stmt 1               # math.c3:992:9
	xorl	%eax, %eax
                                        # kill: def $al killed $al killed $eax
	xorl	%ecx, %ecx
                                        # kill: def $rcx killed $ecx
	cmpq	-688(%rbp), %rcx
	movb	%al, -1169(%rbp)                # 1-byte Spill
	je	.LBB3_63
# %bb.62:                               #   in Loop: Header=BB3_26 Depth=1
	.loc	3 992 20 is_stmt 0              # math.c3:992:20
	movq	-688(%rbp), %rax
	.loc	3 992 25                        # math.c3:992:25
	movq	-688(%rbp), %rcx
	subq	$1, %rcx
	.loc	3 992 20                        # math.c3:992:20
	andq	%rcx, %rax
	.loc	3 992 19                        # math.c3:992:19
	cmpq	$0, %rax
	sete	%al
	movb	%al, -1169(%rbp)                # 1-byte Spill
.LBB3_63:                               #   in Loop: Header=BB3_26 Depth=1
	.loc	3 0 19                          # math.c3:0:19
	movb	-1169(%rbp), %al                # 1-byte Reload
	movb	%al, -1153(%rbp)                # 1-byte Spill
.LBB3_64:                               #   in Loop: Header=BB3_26 Depth=1
	movb	-1153(%rbp), %al                # 1-byte Reload
	.loc	3 992 19                        # math.c3:992:19
	testb	$1, %al
	jne	.LBB3_66
.Ltmp48:
# %bb.65:
	.loc	2 113 19 is_stmt 1              # mem_allocator.c3:113:19
	leaq	.panic_msg.8(%rip), %rdi
	movl	$65, %esi
	leaq	.file.9(%rip), %rdx
	movl	$16, %ecx
	leaq	.func.7(%rip), %r8
	movl	$5, %r9d
	movq	std.core.builtin.panic@GOTPCREL(%rip), %rax
	movl	$113, (%rsp)
	callq	*(%rax)
.LBB3_66:                               #   in Loop: Header=BB3_26 Depth=1
	movb	$1, %al
	testb	$1, %al
	jne	.LBB3_68
	jmp	.LBB3_67
.LBB3_67:
	leaq	.panic_msg.10(%rip), %rdi
	movl	$80, %esi
	leaq	.file.9(%rip), %rdx
	movl	$16, %ecx
	leaq	.func.7(%rip), %r8
	movl	$5, %r9d
	movq	std.core.builtin.panic@GOTPCREL(%rip), %rax
	movl	$113, (%rsp)
	callq	*(%rax)
.LBB3_68:                               #   in Loop: Header=BB3_26 Depth=1
	.loc	2 0 19 is_stmt 0                # mem_allocator.c3:0:19
	movq	-1168(%rbp), %rcx               # 8-byte Reload
	.loc	2 113 19                        # mem_allocator.c3:113:19
	xorl	%eax, %eax
                                        # kill: def $rax killed $eax
	cmpq	%rcx, %rax
	jb	.LBB3_70
# %bb.69:
	leaq	.panic_msg.11(%rip), %rdi
	movl	$59, %esi
	leaq	.file.9(%rip), %rdx
	movl	$16, %ecx
	leaq	.func.7(%rip), %r8
	movl	$5, %r9d
	movq	std.core.builtin.panic@GOTPCREL(%rip), %rax
	movl	$113, (%rsp)
	callq	*(%rax)
.LBB3_70:                               #   in Loop: Header=BB3_26 Depth=1
	movq	-608(%rbp), %rax
	movq	%rax, -1184(%rbp)               # 8-byte Spill
	cmpq	-704(%rbp), %rax
	je	.LBB3_72
# %bb.71:                               #   in Loop: Header=BB3_26 Depth=1
	.loc	2 0 19                          # mem_allocator.c3:0:19
	movq	-1184(%rbp), %rax               # 8-byte Reload
	movq	16(%rax), %rdi
	movq	($sel.acquire)@GOTPCREL(%rip), %rsi
	callq	.dyn_search@PLT
	movq	-1184(%rbp), %rcx               # 8-byte Reload
	movq	%rax, -696(%rbp)
	movq	%rcx, -704(%rbp)
	movq	%rax, -1192(%rbp)               # 8-byte Spill
	jmp	.LBB3_73
.LBB3_72:                               #   in Loop: Header=BB3_26 Depth=1
	movq	-696(%rbp), %rax
	movq	%rax, -1192(%rbp)               # 8-byte Spill
.LBB3_73:                               #   in Loop: Header=BB3_26 Depth=1
	movq	-1192(%rbp), %rax               # 8-byte Reload
	movq	%rax, -1200(%rbp)               # 8-byte Spill
	cmpq	$0, %rax
	jne	.LBB3_75
# %bb.74:
	.loc	2 113 19                        # mem_allocator.c3:113:19
	leaq	.panic_msg.12(%rip), %rdi
	movl	$44, %esi
	leaq	.file.9(%rip), %rdx
	movl	$16, %ecx
	leaq	.func.7(%rip), %r8
	movl	$5, %r9d
	movq	std.core.builtin.panic@GOTPCREL(%rip), %rax
	movl	$113, (%rsp)
	callq	*(%rax)
.LBB3_75:                               #   in Loop: Header=BB3_26 Depth=1
	.loc	2 0 19                          # mem_allocator.c3:0:19
	movq	-1200(%rbp), %rax               # 8-byte Reload
	movq	-1168(%rbp), %rdx               # 8-byte Reload
	movq	-616(%rbp), %rsi
	.loc	2 113 19                        # mem_allocator.c3:113:19
	leaq	-712(%rbp), %rdi
	xorl	%ecx, %ecx
	xorl	%r8d, %r8d
                                        # kill: def $r8 killed $r8d
	callq	*%rax
	movq	%rax, -1208(%rbp)               # 8-byte Spill
	cmpq	$0, %rax
	sete	%al
	testb	$1, %al
	jne	.LBB3_77
# %bb.76:
	.loc	2 0 19                          # mem_allocator.c3:0:19
	movq	-1208(%rbp), %rax               # 8-byte Reload
	.loc	2 113 19                        # mem_allocator.c3:113:19
	movq	%rax, -600(%rbp)
	jmp	.LBB3_99
.LBB3_77:                               #   in Loop: Header=BB3_26 Depth=1
	movq	-712(%rbp), %rax
	movq	%rax, -640(%rbp)
	jmp	.LBB3_98
.LBB3_78:                               #   in Loop: Header=BB3_26 Depth=1
	.loc	2 114 26 is_stmt 1              # mem_allocator.c3:114:26
	movq	-624(%rbp), %rax
	movq	%rax, -1232(%rbp)               # 8-byte Spill
	.loc	2 114 31 is_stmt 0              # mem_allocator.c3:114:31
	movq	-632(%rbp), %rax
	movq	%rax, -1224(%rbp)               # 8-byte Spill
	.loc	2 48 12 is_stmt 1               # mem_allocator.c3:48:12
	movb	$1, %al
	testb	$1, %al
	movb	%al, -1209(%rbp)                # 1-byte Spill
	jne	.LBB3_82
# %bb.79:                               #   in Loop: Header=BB3_26 Depth=1
	.loc	2 0 12 is_stmt 0                # mem_allocator.c3:0:12
	movq	$0, -720(%rbp)
.Ltmp49:
	.loc	3 992 9 is_stmt 1               # math.c3:992:9
	xorl	%eax, %eax
                                        # kill: def $al killed $al killed $eax
	xorl	%ecx, %ecx
                                        # kill: def $rcx killed $ecx
	cmpq	-720(%rbp), %rcx
	movb	%al, -1233(%rbp)                # 1-byte Spill
	je	.LBB3_81
# %bb.80:                               #   in Loop: Header=BB3_26 Depth=1
	.loc	3 992 20 is_stmt 0              # math.c3:992:20
	movq	-720(%rbp), %rax
	.loc	3 992 25                        # math.c3:992:25
	movq	-720(%rbp), %rcx
	subq	$1, %rcx
	.loc	3 992 20                        # math.c3:992:20
	andq	%rcx, %rax
	.loc	3 992 19                        # math.c3:992:19
	cmpq	$0, %rax
	sete	%al
	movb	%al, -1233(%rbp)                # 1-byte Spill
.LBB3_81:                               #   in Loop: Header=BB3_26 Depth=1
	.loc	3 0 19                          # math.c3:0:19
	movb	-1233(%rbp), %al                # 1-byte Reload
	movb	%al, -1209(%rbp)                # 1-byte Spill
.LBB3_82:                               #   in Loop: Header=BB3_26 Depth=1
	movb	-1209(%rbp), %al                # 1-byte Reload
	.loc	3 992 19                        # math.c3:992:19
	testb	$1, %al
	jne	.LBB3_84
.Ltmp50:
# %bb.83:
	.loc	2 114 9 is_stmt 1               # mem_allocator.c3:114:9
	leaq	.panic_msg.8(%rip), %rdi
	movl	$65, %esi
	leaq	.file.9(%rip), %rdx
	movl	$16, %ecx
	leaq	.func.7(%rip), %r8
	movl	$5, %r9d
	movq	std.core.builtin.panic@GOTPCREL(%rip), %rax
	movl	$114, (%rsp)
	callq	*(%rax)
.LBB3_84:                               #   in Loop: Header=BB3_26 Depth=1
	movb	$1, %al
	testb	$1, %al
	jne	.LBB3_86
	jmp	.LBB3_85
.LBB3_85:
	leaq	.panic_msg.10(%rip), %rdi
	movl	$80, %esi
	leaq	.file.9(%rip), %rdx
	movl	$16, %ecx
	leaq	.func.7(%rip), %r8
	movl	$5, %r9d
	movq	std.core.builtin.panic@GOTPCREL(%rip), %rax
	movl	$114, (%rsp)
	callq	*(%rax)
.LBB3_86:                               #   in Loop: Header=BB3_26 Depth=1
	.loc	2 0 9 is_stmt 0                 # mem_allocator.c3:0:9
	movq	-1232(%rbp), %rax               # 8-byte Reload
	.loc	2 114 9                         # mem_allocator.c3:114:9
	cmpq	$0, %rax
	jne	.LBB3_88
# %bb.87:
	leaq	.panic_msg.17(%rip), %rdi
	movl	$32, %esi
	leaq	.file.9(%rip), %rdx
	movl	$16, %ecx
	leaq	.func.7(%rip), %r8
	movl	$5, %r9d
	movq	std.core.builtin.panic@GOTPCREL(%rip), %rax
	movl	$114, (%rsp)
	callq	*(%rax)
.LBB3_88:                               #   in Loop: Header=BB3_26 Depth=1
	.loc	2 0 9                           # mem_allocator.c3:0:9
	movq	-1224(%rbp), %rcx               # 8-byte Reload
	.loc	2 114 9                         # mem_allocator.c3:114:9
	xorl	%eax, %eax
                                        # kill: def $rax killed $eax
	cmpq	%rcx, %rax
	jb	.LBB3_90
# %bb.89:
	leaq	.panic_msg.18(%rip), %rdi
	movl	$33, %esi
	leaq	.file.9(%rip), %rdx
	movl	$16, %ecx
	leaq	.func.7(%rip), %r8
	movl	$5, %r9d
	movq	std.core.builtin.panic@GOTPCREL(%rip), %rax
	movl	$114, (%rsp)
	callq	*(%rax)
.LBB3_90:                               #   in Loop: Header=BB3_26 Depth=1
	movq	-608(%rbp), %rax
	movq	%rax, -1248(%rbp)               # 8-byte Spill
	cmpq	-736(%rbp), %rax
	je	.LBB3_92
# %bb.91:                               #   in Loop: Header=BB3_26 Depth=1
	.loc	2 0 9                           # mem_allocator.c3:0:9
	movq	-1248(%rbp), %rax               # 8-byte Reload
	movq	16(%rax), %rdi
	movq	($sel.resize)@GOTPCREL(%rip), %rsi
	callq	.dyn_search@PLT
	movq	-1248(%rbp), %rcx               # 8-byte Reload
	movq	%rax, -728(%rbp)
	movq	%rcx, -736(%rbp)
	movq	%rax, -1256(%rbp)               # 8-byte Spill
	jmp	.LBB3_93
.LBB3_92:                               #   in Loop: Header=BB3_26 Depth=1
	movq	-728(%rbp), %rax
	movq	%rax, -1256(%rbp)               # 8-byte Spill
.LBB3_93:                               #   in Loop: Header=BB3_26 Depth=1
	movq	-1256(%rbp), %rax               # 8-byte Reload
	movq	%rax, -1264(%rbp)               # 8-byte Spill
	cmpq	$0, %rax
	jne	.LBB3_95
# %bb.94:
	.loc	2 114 9                         # mem_allocator.c3:114:9
	leaq	.panic_msg.19(%rip), %rdi
	movl	$43, %esi
	leaq	.file.9(%rip), %rdx
	movl	$16, %ecx
	leaq	.func.7(%rip), %r8
	movl	$5, %r9d
	movq	std.core.builtin.panic@GOTPCREL(%rip), %rax
	movl	$114, (%rsp)
	callq	*(%rax)
.LBB3_95:                               #   in Loop: Header=BB3_26 Depth=1
	.loc	2 0 9                           # mem_allocator.c3:0:9
	movq	-1264(%rbp), %rax               # 8-byte Reload
	movq	-1224(%rbp), %rcx               # 8-byte Reload
	movq	-1232(%rbp), %rdx               # 8-byte Reload
	movq	-616(%rbp), %rsi
	.loc	2 114 9                         # mem_allocator.c3:114:9
	leaq	-744(%rbp), %rdi
	xorl	%r8d, %r8d
                                        # kill: def $r8 killed $r8d
	callq	*%rax
	movq	%rax, -1272(%rbp)               # 8-byte Spill
	cmpq	$0, %rax
	sete	%al
	testb	$1, %al
	jne	.LBB3_97
# %bb.96:
	.loc	2 0 9                           # mem_allocator.c3:0:9
	movq	-1272(%rbp), %rax               # 8-byte Reload
	.loc	2 114 9                         # mem_allocator.c3:114:9
	movq	%rax, -600(%rbp)
	jmp	.LBB3_99
.LBB3_97:                               #   in Loop: Header=BB3_26 Depth=1
	movq	-744(%rbp), %rax
	movq	%rax, -640(%rbp)
.LBB3_98:                               #   in Loop: Header=BB3_26 Depth=1
	jmp	.LBB3_100
.LBB3_99:
	movq	($ct.fault)@GOTPCREL(%rip), %rax
	movq	%rax, -760(%rbp)
	leaq	-600(%rbp), %rax
	movq	%rax, -768(%rbp)
	leaq	-768(%rbp), %rax
	movq	%rax, -784(%rbp)
	movq	$1, -776(%rbp)
.Ltmp51:
	.loc	2 103 9 is_stmt 1               # mem_allocator.c3:103:9
	leaq	.panic_msg.13(%rip), %rdi
	movl	$36, %esi
	leaq	.file.9(%rip), %rdx
	movl	$16, %ecx
	leaq	.func.7(%rip), %r8
	movl	$5, %r9d
	leaq	-784(%rbp), %rax
	movl	$103, (%rsp)
	movq	(%rax), %r10
	movq	%r10, 8(%rsp)
	movq	8(%rax), %rax
	movq	%rax, 16(%rsp)
	callq	std.core.builtin.panicf@PLT
.LBB3_100:                              #   in Loop: Header=BB3_26 Depth=1
	movq	-640(%rbp), %rax
	movq	%rax, -72(%rbp)
.Ltmp52:
.LBB3_101:                              #   in Loop: Header=BB3_26 Depth=1
	.loc	1 371 3                         # string.c3:371:3
	movq	-72(%rbp), %rax
	.loc	1 371 10 is_stmt 0              # string.c3:371:10
	movq	-64(%rbp), %rcx
	movq	%rcx, %rdx
	addq	$1, %rdx
	movq	%rdx, -64(%rbp)
	shlq	$4, %rcx
	addq	%rcx, %rax
	movq	%rax, -1288(%rbp)               # 8-byte Spill
	andq	$7, %rax
	movq	%rax, -1280(%rbp)               # 8-byte Spill
	cmpq	$0, %rax
	setne	%al
	testb	$1, %al
	jne	.LBB3_114
# %bb.102:                              #   in Loop: Header=BB3_26 Depth=1
	.loc	1 0 10                          # string.c3:0:10
	movq	-1288(%rbp), %rax               # 8-byte Reload
	.loc	1 371 3                         # string.c3:371:3
	movq	-320(%rbp), %rcx
	movq	%rcx, (%rax)
	movq	-312(%rbp), %rcx
	movq	%rcx, 8(%rax)
	jmp	.LBB3_26
.Ltmp53:
.LBB3_103:
	.loc	1 373 9 is_stmt 1               # string.c3:373:9
	movq	-72(%rbp), %rax
	movq	%rax, -1312(%rbp)               # 8-byte Spill
	.loc	1 373 17 is_stmt 0              # string.c3:373:17
	movq	-64(%rbp), %rcx
	addq	$0, %rcx
	movq	%rcx, -1304(%rbp)               # 8-byte Spill
	xorl	%eax, %eax
                                        # kill: def $rax killed $eax
	cmpq	%rcx, %rax
	seta	%al
	subq	$0, %rcx
	movq	%rcx, -1296(%rbp)               # 8-byte Spill
	testb	$1, %al
	jne	.LBB3_115
# %bb.104:
	.loc	1 0 17                          # string.c3:0:17
	movq	-1312(%rbp), %rax               # 8-byte Reload
	movq	-1304(%rbp), %rdx               # 8-byte Reload
	movq	%rdx, -1336(%rbp)               # 8-byte Spill
	movq	%rax, -1328(%rbp)               # 8-byte Spill
	.loc	1 339 10 is_stmt 1              # string.c3:339:10
	movb	$1, %al
	xorl	%ecx, %ecx
                                        # kill: def $rcx killed $ecx
	cmpq	%rdx, %rcx
	movb	%al, -1313(%rbp)                # 1-byte Spill
	jb	.LBB3_106
# %bb.105:
	.loc	1 339 28 is_stmt 0              # string.c3:339:28
	movb	24(%rbp), %al
	movb	%al, -1313(%rbp)                # 1-byte Spill
.LBB3_106:
	.loc	1 0 28                          # string.c3:0:28
	movb	-1313(%rbp), %al                # 1-byte Reload
	.loc	1 339 28                        # string.c3:339:28
	testb	$1, %al
	jne	.LBB3_108
# %bb.107:
	.loc	1 373 9 is_stmt 1               # string.c3:373:9
	leaq	.panic_msg.21(%rip), %rdi
	movl	$48, %esi
	leaq	.file(%rip), %rdx
	movl	$9, %ecx
	leaq	.func.7(%rip), %r8
	movl	$5, %r9d
	movq	std.core.builtin.panic@GOTPCREL(%rip), %rax
	movl	$373, (%rsp)                    # imm = 0x175
	callq	*(%rax)
.LBB3_108:
	.loc	1 0 9 is_stmt 0                 # string.c3:0:9
	movq	-1336(%rbp), %rax               # 8-byte Reload
	movq	-1328(%rbp), %rcx               # 8-byte Reload
	movq	%rcx, -912(%rbp)
	movq	%rax, -904(%rbp)
	movq	-912(%rbp), %rax
	movq	-904(%rbp), %rdx
	addq	$1360, %rsp                     # imm = 0x550
	popq	%rbp
	.cfi_def_cfa %rsp, 8
	retq
.LBB3_109:
	.cfi_def_cfa %rbp, 16
	movq	-976(%rbp), %rax                # 8-byte Reload
	movq	%rax, -200(%rbp)
	movq	($ct.long)@GOTPCREL(%rip), %rax
	movq	%rax, -216(%rbp)
	leaq	-200(%rbp), %rax
	movq	%rax, -224(%rbp)
	leaq	-224(%rbp), %rax
	movq	%rax, -240(%rbp)
	movq	$1, -232(%rbp)
.Ltmp54:
	.loc	2 304 9 is_stmt 1               # mem_allocator.c3:304:9
	leaq	.panic_msg.5(%rip), %rdi
	movl	$43, %esi
	leaq	.file.9(%rip), %rdx
	movl	$16, %ecx
	leaq	.func.7(%rip), %r8
	movl	$5, %r9d
	leaq	-240(%rbp), %rax
	movl	$304, (%rsp)                    # imm = 0x130
	movq	(%rax), %r10
	movq	%r10, 8(%rsp)
	movq	8(%rax), %rax
	movq	%rax, 16(%rsp)
	callq	std.core.builtin.panicf@PLT
.Ltmp55:
.LBB3_110:
	.loc	2 0 9 is_stmt 0                 # mem_allocator.c3:0:9
	movq	-1056(%rbp), %rax               # 8-byte Reload
	movq	%rax, -328(%rbp)
	movq	($ct.ulong)@GOTPCREL(%rip), %rax
	movq	$0, -336(%rbp)
	movq	%rax, -360(%rbp)
	leaq	-328(%rbp), %rcx
	movq	%rcx, -368(%rbp)
	movq	%rax, -344(%rbp)
	leaq	-336(%rbp), %rax
	movq	%rax, -352(%rbp)
	leaq	-368(%rbp), %rax
	movq	%rax, -384(%rbp)
	movq	$2, -376(%rbp)
.Ltmp56:
	.loc	1 353 10 is_stmt 1              # string.c3:353:10
	leaq	.panic_msg.1(%rip), %rdi
	movl	$61, %esi
	leaq	.file(%rip), %rdx
	movl	$9, %ecx
	leaq	.func.7(%rip), %r8
	movl	$5, %r9d
	leaq	-384(%rbp), %rax
	movl	$353, (%rsp)                    # imm = 0x161
	movq	(%rax), %r10
	movq	%r10, 8(%rsp)
	movq	8(%rax), %rax
	movq	%rax, 16(%rsp)
	callq	std.core.builtin.panicf@PLT
.LBB3_111:
	.loc	1 0 10 is_stmt 0                # string.c3:0:10
	movq	-1072(%rbp), %rax               # 8-byte Reload
	movq	%rax, -392(%rbp)
	movq	($ct.long)@GOTPCREL(%rip), %rax
	movq	%rax, -408(%rbp)
	leaq	-392(%rbp), %rax
	movq	%rax, -416(%rbp)
	leaq	-416(%rbp), %rax
	movq	%rax, -432(%rbp)
	movq	$1, -424(%rbp)
	.loc	1 353 10                        # string.c3:353:10
	leaq	.panic_msg.5(%rip), %rdi
	movl	$43, %esi
	leaq	.file(%rip), %rdx
	movl	$9, %ecx
	leaq	.func.7(%rip), %r8
	movl	$5, %r9d
	leaq	-432(%rbp), %rax
	movl	$353, (%rsp)                    # imm = 0x161
	movq	(%rax), %r10
	movq	%r10, 8(%rsp)
	movq	8(%rax), %rax
	movq	%rax, 16(%rsp)
	callq	std.core.builtin.panicf@PLT
.LBB3_112:
	.loc	1 0 10                          # string.c3:0:10
	movq	-1056(%rbp), %rcx               # 8-byte Reload
	movq	-1088(%rbp), %rax               # 8-byte Reload
	movq	%rax, -440(%rbp)
	movq	($ct.ulong)@GOTPCREL(%rip), %rax
	movq	%rcx, -448(%rbp)
	movq	%rax, -472(%rbp)
	leaq	-440(%rbp), %rcx
	movq	%rcx, -480(%rbp)
	movq	%rax, -456(%rbp)
	leaq	-448(%rbp), %rax
	movq	%rax, -464(%rbp)
	leaq	-480(%rbp), %rax
	movq	%rax, -496(%rbp)
	movq	$2, -488(%rbp)
	.loc	1 353 10                        # string.c3:353:10
	leaq	.panic_msg.2(%rip), %rdi
	movl	$60, %esi
	leaq	.file(%rip), %rdx
	movl	$9, %ecx
	leaq	.func.7(%rip), %r8
	movl	$5, %r9d
	leaq	-496(%rbp), %rax
	movl	$353, (%rsp)                    # imm = 0x161
	movq	(%rax), %r10
	movq	%r10, 8(%rsp)
	movq	8(%rax), %rax
	movq	%rax, 16(%rsp)
	callq	std.core.builtin.panicf@PLT
.LBB3_113:
	.loc	1 0 10                          # string.c3:0:10
	movq	-1096(%rbp), %rcx               # 8-byte Reload
	movq	-1104(%rbp), %rax               # 8-byte Reload
	movq	%rax, -504(%rbp)
	movq	($ct.ulong)@GOTPCREL(%rip), %rax
	movq	%rcx, -512(%rbp)
	movq	%rax, -536(%rbp)
	leaq	-504(%rbp), %rcx
	movq	%rcx, -544(%rbp)
	movq	%rax, -520(%rbp)
	leaq	-512(%rbp), %rax
	movq	%rax, -528(%rbp)
	leaq	-544(%rbp), %rax
	movq	%rax, -560(%rbp)
	movq	$2, -552(%rbp)
	.loc	1 354 11 is_stmt 1              # string.c3:354:11
	leaq	.panic_msg.1(%rip), %rdi
	movl	$61, %esi
	leaq	.file(%rip), %rdx
	movl	$9, %ecx
	leaq	.func.7(%rip), %r8
	movl	$5, %r9d
	leaq	-560(%rbp), %rax
	movl	$354, (%rsp)                    # imm = 0x162
	movq	(%rax), %r10
	movq	%r10, 8(%rsp)
	movq	8(%rax), %rax
	movq	%rax, 16(%rsp)
	callq	std.core.builtin.panicf@PLT
.Ltmp57:
.LBB3_114:
	.loc	1 0 11 is_stmt 0                # string.c3:0:11
	movq	-1280(%rbp), %rcx               # 8-byte Reload
	movq	$8, -792(%rbp)
	movq	($ct.ulong)@GOTPCREL(%rip), %rax
	movq	%rcx, -800(%rbp)
	movq	%rax, -824(%rbp)
	leaq	-792(%rbp), %rcx
	movq	%rcx, -832(%rbp)
	movq	%rax, -808(%rbp)
	leaq	-800(%rbp), %rax
	movq	%rax, -816(%rbp)
	leaq	-832(%rbp), %rax
	movq	%rax, -848(%rbp)
	movq	$2, -840(%rbp)
	.loc	1 371 3 is_stmt 1               # string.c3:371:3
	leaq	.panic_msg.20(%rip), %rdi
	movl	$94, %esi
	leaq	.file(%rip), %rdx
	movl	$9, %ecx
	leaq	.func.7(%rip), %r8
	movl	$5, %r9d
	leaq	-848(%rbp), %rax
	movl	$371, (%rsp)                    # imm = 0x173
	movq	(%rax), %r10
	movq	%r10, 8(%rsp)
	movq	8(%rax), %rax
	movq	%rax, 16(%rsp)
	callq	std.core.builtin.panicf@PLT
.Ltmp58:
.LBB3_115:
	.loc	1 0 3 is_stmt 0                 # string.c3:0:3
	movq	-1296(%rbp), %rax               # 8-byte Reload
	movq	%rax, -856(%rbp)
	movq	($ct.long)@GOTPCREL(%rip), %rax
	movq	%rax, -872(%rbp)
	leaq	-856(%rbp), %rax
	movq	%rax, -880(%rbp)
	leaq	-880(%rbp), %rax
	movq	%rax, -896(%rbp)
	movq	$1, -888(%rbp)
	.loc	1 373 9 is_stmt 1               # string.c3:373:9
	leaq	.panic_msg.5(%rip), %rdi
	movl	$43, %esi
	leaq	.file(%rip), %rdx
	movl	$9, %ecx
	leaq	.func.7(%rip), %r8
	movl	$5, %r9d
	leaq	-896(%rbp), %rax
	movl	$373, (%rsp)                    # imm = 0x175
	movq	(%rax), %r10
	movq	%r10, 8(%rsp)
	movq	8(%rax), %rax
	movq	%rax, 16(%rsp)
	callq	std.core.builtin.panicf@PLT
.Ltmp59:
.Lfunc_end3:
	.size	std.core.String.split, .Lfunc_end3-std.core.String.split
	.cfi_endproc
                                        # -- End function
	.section	.text.std.core.String.contains,"axG",@progbits,std.core.String.contains,comdat
	.weak	std.core.String.contains        # -- Begin function std.core.String.contains
	.p2align	4, 0x90
	.type	std.core.String.contains,@function
std.core.String.contains:               # @std.core.String.contains
.Lfunc_begin4:
	.loc	1 441 0                         # string.c3:441:0
	.cfi_startproc
# %bb.0:
	pushq	%rbp
	.cfi_def_cfa_offset 16
	.cfi_offset %rbp, -16
	movq	%rsp, %rbp
	.cfi_def_cfa_register %rbp
	subq	$112, %rsp
	movq	%rdi, -16(%rbp)
	movq	%rsi, -8(%rbp)
	movq	%rdx, -32(%rbp)
	movq	%rcx, -24(%rbp)
# %bb.1:
.Ltmp60:
	.file	4 "/nix/store/ihf6dmy4cll298qphlwhnmgml1y02khm-c3c-0.7.5/lib/c3/std/core" "builtin.c3"
	.loc	4 443 13 prologue_end           # builtin.c3:443:13
	movq	-16(%rbp), %rax
	movq	%rax, -88(%rbp)                 # 8-byte Spill
	movq	-8(%rbp), %rax
	movq	%rax, -80(%rbp)                 # 8-byte Spill
	.loc	4 443 24 is_stmt 0              # builtin.c3:443:24
	movq	-32(%rbp), %rax
	movq	%rax, -72(%rbp)                 # 8-byte Spill
	movq	-24(%rbp), %rcx
	movq	%rcx, -64(%rbp)                 # 8-byte Spill
	.loc	4 473 12 is_stmt 1              # builtin.c3:473:12
	xorl	%eax, %eax
                                        # kill: def $rax killed $eax
	cmpq	%rcx, %rax
	jb	.LBB4_3
# %bb.2:
	leaq	.panic_msg.14(%rip), %rdi
	movl	$71, %esi
	leaq	.file.22(%rip), %rdx
	movl	$10, %ecx
	leaq	.func.23(%rip), %r8
	movl	$8, %r9d
	movq	std.core.builtin.panic@GOTPCREL(%rip), %rax
	movl	$473, (%rsp)                    # imm = 0x1D9
	callq	*(%rax)
.LBB4_3:
	.loc	4 0 12 is_stmt 0                # builtin.c3:0:12
	movq	-64(%rbp), %r8                  # 8-byte Reload
	movq	-72(%rbp), %rcx                 # 8-byte Reload
	movq	-80(%rbp), %rdx                 # 8-byte Reload
	movq	-88(%rbp), %rsi                 # 8-byte Reload
	.loc	4 473 12                        # builtin.c3:473:12
	leaq	-56(%rbp), %rdi
	callq	std.core.String.index_of@PLT
	movq	%rax, -96(%rbp)                 # 8-byte Spill
	cmpq	$0, %rax
	sete	%al
	testb	$1, %al
	jne	.LBB4_5
# %bb.4:
	.loc	4 0 12                          # builtin.c3:0:12
	movq	-96(%rbp), %rax                 # 8-byte Reload
	.loc	4 473 12                        # builtin.c3:473:12
	movq	%rax, -48(%rbp)
	jmp	.LBB4_6
.LBB4_5:
	movq	$0, -48(%rbp)
.LBB4_6:
	cmpq	$0, -48(%rbp)
	je	.LBB4_8
# %bb.7:
	.loc	4 473 26                        # builtin.c3:473:26
	movb	$0, -33(%rbp)
	jmp	.LBB4_9
.LBB4_8:
	.loc	4 474 9 is_stmt 1               # builtin.c3:474:9
	movb	$1, -33(%rbp)
.LBB4_9:
	movb	-33(%rbp), %al
	.loc	4 474 9 epilogue_begin is_stmt 0 # builtin.c3:474:9
	addq	$112, %rsp
	popq	%rbp
	.cfi_def_cfa %rsp, 8
	retq
.Ltmp61:
.Lfunc_end4:
	.size	std.core.String.contains, .Lfunc_end4-std.core.String.contains
	.cfi_endproc
                                        # -- End function
	.section	.text.std.core.String.rindex_of_char,"axG",@progbits,std.core.String.rindex_of_char,comdat
	.weak	std.core.String.rindex_of_char  # -- Begin function std.core.String.rindex_of_char
	.p2align	4, 0x90
	.type	std.core.String.rindex_of_char,@function
std.core.String.rindex_of_char:         # @std.core.String.rindex_of_char
.Lfunc_begin5:
	.loc	1 565 0 is_stmt 1               # string.c3:565:0
	.cfi_startproc
# %bb.0:
	pushq	%rbp
	.cfi_def_cfa_offset 16
	.cfi_offset %rbp, -16
	movq	%rsp, %rbp
	.cfi_def_cfa_register %rbp
	subq	$192, %rsp
	movq	%rdi, -128(%rbp)                # 8-byte Spill
	movb	%cl, %al
	movq	%rsi, -16(%rbp)
	movq	%rdx, -8(%rbp)
	movb	%al, -17(%rbp)
.Ltmp62:
	.loc	1 567 20 prologue_end           # string.c3:567:20
	movq	-8(%rbp), %rax
	movq	%rax, -32(%rbp)
.LBB5_1:                                # =>This Inner Loop Header: Depth=1
	.loc	1 567 13 is_stmt 0              # string.c3:567:13
	cmpq	$0, -32(%rbp)
	jbe	.LBB5_8
# %bb.2:                                #   in Loop: Header=BB5_1 Depth=1
	movq	-32(%rbp), %rax
	subq	$1, %rax
	movq	%rax, -32(%rbp)
.Ltmp63:
	.loc	1 567 13                        # string.c3:567:13
	movq	-32(%rbp), %rax
	movq	%rax, -40(%rbp)
	.loc	1 567 20                        # string.c3:567:20
	movq	-8(%rbp), %rcx
	movq	%rcx, -152(%rbp)                # 8-byte Spill
	movq	-16(%rbp), %rax
	movq	%rax, -144(%rbp)                # 8-byte Spill
	.loc	1 567 13                        # string.c3:567:13
	movq	-32(%rbp), %rax
	movq	%rax, -136(%rbp)                # 8-byte Spill
	cmpq	%rcx, %rax
	setae	%al
	testb	$1, %al
	jne	.LBB5_9
# %bb.3:                                #   in Loop: Header=BB5_1 Depth=1
	.loc	1 0 13                          # string.c3:0:13
	movq	-144(%rbp), %rax                # 8-byte Reload
	movq	-136(%rbp), %rcx                # 8-byte Reload
	.loc	1 567 13                        # string.c3:567:13
	movb	(%rax,%rcx), %al
	movb	%al, -41(%rbp)
.Ltmp64:
	.loc	1 569 7 is_stmt 1               # string.c3:569:7
	movb	-41(%rbp), %al
	cmpb	-17(%rbp), %al
	jne	.LBB5_7
# %bb.4:
	.loc	1 569 30 is_stmt 0              # string.c3:569:30
	movq	-40(%rbp), %rax
	movq	%rax, -160(%rbp)                # 8-byte Spill
	.loc	1 561 10 is_stmt 1              # string.c3:561:10
	movq	-40(%rbp), %rax
	.loc	1 569 30                        # string.c3:569:30
	cmpq	-8(%rbp), %rax
	jb	.LBB5_6
# %bb.5:
	leaq	.panic_msg.25(%rip), %rdi
	movl	$37, %esi
	leaq	.file(%rip), %rdx
	movl	$9, %ecx
	leaq	.func.24(%rip), %r8
	movl	$14, %r9d
	movq	std.core.builtin.panic@GOTPCREL(%rip), %rax
	movl	$569, (%rsp)                    # imm = 0x239
	callq	*(%rax)
.LBB5_6:
	.loc	1 0 30 is_stmt 0                # string.c3:0:30
	movq	-128(%rbp), %rax                # 8-byte Reload
	movq	-160(%rbp), %rcx                # 8-byte Reload
	.loc	1 569 30                        # string.c3:569:30
	movq	%rcx, (%rax)
	xorl	%eax, %eax
                                        # kill: def $rax killed $eax
	.loc	1 569 30 epilogue_begin         # string.c3:569:30
	addq	$192, %rsp
	popq	%rbp
	.cfi_def_cfa %rsp, 8
	retq
.LBB5_7:                                #   in Loop: Header=BB5_1 Depth=1
	.cfi_def_cfa %rbp, 16
	jmp	.LBB5_1
.Ltmp65:
.LBB5_8:
	.loc	1 571 9 is_stmt 1               # string.c3:571:9
	movq	std.core.builtin.NOT_FOUND@GOTPCREL(%rip), %rax
	.loc	1 571 9 epilogue_begin is_stmt 0 # string.c3:571:9
	addq	$192, %rsp
	popq	%rbp
	.cfi_def_cfa %rsp, 8
	retq
.LBB5_9:
	.cfi_def_cfa %rbp, 16
	.loc	1 0 9                           # string.c3:0:9
	movq	-136(%rbp), %rcx                # 8-byte Reload
	movq	-152(%rbp), %rax                # 8-byte Reload
	movq	%rax, -56(%rbp)
	movq	($ct.ulong)@GOTPCREL(%rip), %rax
	movq	%rcx, -64(%rbp)
	movq	%rax, -88(%rbp)
	leaq	-56(%rbp), %rcx
	movq	%rcx, -96(%rbp)
	movq	%rax, -72(%rbp)
	leaq	-64(%rbp), %rax
	movq	%rax, -80(%rbp)
	leaq	-96(%rbp), %rax
	movq	%rax, -112(%rbp)
	movq	$2, -104(%rbp)
.Ltmp66:
	.loc	1 567 13 is_stmt 1              # string.c3:567:13
	leaq	.panic_msg(%rip), %rdi
	movl	$59, %esi
	leaq	.file(%rip), %rdx
	movl	$9, %ecx
	leaq	.func.24(%rip), %r8
	movl	$14, %r9d
	leaq	-112(%rbp), %rax
	movl	$567, (%rsp)                    # imm = 0x237
	movq	(%rax), %r10
	movq	%r10, 8(%rsp)
	movq	8(%rax), %rax
	movq	%rax, 16(%rsp)
	callq	std.core.builtin.panicf@PLT
.Ltmp67:
.Lfunc_end5:
	.size	std.core.String.rindex_of_char, .Lfunc_end5-std.core.String.rindex_of_char
	.cfi_endproc
                                        # -- End function
	.section	.text.std.core.String.index_of,"axG",@progbits,std.core.String.index_of,comdat
	.weak	std.core.String.index_of        # -- Begin function std.core.String.index_of
	.p2align	4, 0x90
	.type	std.core.String.index_of,@function
std.core.String.index_of:               # @std.core.String.index_of
.Lfunc_begin6:
	.loc	1 585 0                         # string.c3:585:0
	.cfi_startproc
# %bb.0:
	pushq	%rbp
	.cfi_def_cfa_offset 16
	.cfi_offset %rbp, -16
	movq	%rsp, %rbp
	.cfi_def_cfa_register %rbp
	subq	$800, %rsp                      # imm = 0x320
	movq	%rdi, -600(%rbp)                # 8-byte Spill
	movq	%rsi, -16(%rbp)
	movq	%rdx, -8(%rbp)
	movq	%rcx, -32(%rbp)
	movq	%r8, -24(%rbp)
.Ltmp68:
	.loc	1 581 11 prologue_end           # string.c3:581:11
	xorl	%eax, %eax
                                        # kill: def $rax killed $eax
	cmpq	-24(%rbp), %rax
	jb	.LBB6_2
# %bb.1:
	leaq	.panic_msg.14(%rip), %rdi
	movl	$71, %esi
	leaq	.file(%rip), %rdx
	movl	$9, %ecx
	leaq	.func.26(%rip), %r8
	movl	$8, %r9d
	movq	std.core.builtin.panic@GOTPCREL(%rip), %rax
	movl	$581, (%rsp)                    # imm = 0x245
	callq	*(%rax)
.Ltmp69:
.LBB6_2:
	.loc	1 587 15                        # string.c3:587:15
	movq	-24(%rbp), %rax
	movq	%rax, -40(%rbp)
	.loc	1 588 6                         # string.c3:588:6
	xorl	%eax, %eax
                                        # kill: def $al killed $al killed $eax
	xorl	%ecx, %ecx
                                        # kill: def $rcx killed $ecx
	cmpq	-40(%rbp), %rcx
	movb	%al, -601(%rbp)                 # 1-byte Spill
	jae	.LBB6_4
# %bb.3:
	.loc	1 588 20 is_stmt 0              # string.c3:588:20
	movq	-8(%rbp), %rax
	cmpq	-40(%rbp), %rax
	setae	%al
	movb	%al, -601(%rbp)                 # 1-byte Spill
.LBB6_4:
	.loc	1 0 20                          # string.c3:0:20
	movb	-601(%rbp), %al                 # 1-byte Reload
	.loc	1 588 20                        # string.c3:588:20
	testb	$1, %al
	jne	.LBB6_5
	jmp	.LBB6_27
.LBB6_5:
.Ltmp70:
	.loc	1 590 16 is_stmt 1              # string.c3:590:16
	movq	-24(%rbp), %rcx
	movq	%rcx, -624(%rbp)                # 8-byte Spill
	movq	-32(%rbp), %rax
	movq	%rax, -616(%rbp)                # 8-byte Spill
	.loc	1 590 23 is_stmt 0              # string.c3:590:23
	xorl	%eax, %eax
                                        # kill: def $rax killed $eax
	cmpq	%rcx, %rax
	setge	%al
	testb	$1, %al
	jne	.LBB6_28
# %bb.6:
	.loc	1 0 23                          # string.c3:0:23
	movq	-616(%rbp), %rax                # 8-byte Reload
	.loc	1 590 23                        # string.c3:590:23
	movb	(%rax), %al
	movb	%al, -41(%rbp)
.Ltmp71:
	.loc	1 591 18 is_stmt 1              # string.c3:591:18
	movq	-16(%rbp), %rax
	movq	%rax, -640(%rbp)                # 8-byte Spill
	movq	-8(%rbp), %rcx
	movq	%rcx, -632(%rbp)                # 8-byte Spill
	.loc	1 591 23 is_stmt 0              # string.c3:591:23
	xorl	%eax, %eax
                                        # kill: def $rax killed $eax
	cmpq	%rcx, %rax
	seta	%al
	testb	$1, %al
	jne	.LBB6_29
# %bb.7:
	.loc	1 0 23                          # string.c3:0:23
	movq	-632(%rbp), %rcx                # 8-byte Reload
	.loc	1 591 26                        # string.c3:591:26
	subq	-40(%rbp), %rcx
	movq	%rcx, -648(%rbp)                # 8-byte Spill
	xorl	%eax, %eax
                                        # kill: def $rax killed $eax
	cmpq	%rcx, %rax
	seta	%al
	testb	$1, %al
	jne	.LBB6_30
# %bb.8:
	.loc	1 0 26                          # string.c3:0:26
	movq	-632(%rbp), %rax                # 8-byte Reload
	movq	-648(%rbp), %rcx                # 8-byte Reload
	.loc	1 591 18                        # string.c3:591:18
	cmpq	%rcx, %rax
	setbe	%al
	testb	$1, %al
	jne	.LBB6_31
# %bb.9:
	.loc	1 0 18                          # string.c3:0:18
	movq	-640(%rbp), %rax                # 8-byte Reload
	movq	-648(%rbp), %rcx                # 8-byte Reload
	.loc	1 591 18                        # string.c3:591:18
	incq	%rcx
	movq	%rcx, -664(%rbp)                # 8-byte Spill
	movq	%rax, -656(%rbp)                # 8-byte Spill
	.loc	1 591 12                        # string.c3:591:12
	movq	$0, -312(%rbp)
.LBB6_10:                               # =>This Loop Header: Depth=1
                                        #     Child Loop BB6_18 Depth 2
	.loc	1 0 12                          # string.c3:0:12
	movq	-664(%rbp), %rax                # 8-byte Reload
	.loc	1 591 12                        # string.c3:591:12
	cmpq	%rax, -312(%rbp)
	jae	.LBB6_26
# %bb.11:                               #   in Loop: Header=BB6_10 Depth=1
	.loc	1 0 12                          # string.c3:0:12
	movq	-664(%rbp), %rcx                # 8-byte Reload
.Ltmp72:
	.loc	1 591 12                        # string.c3:591:12
	movq	-312(%rbp), %rax
	movq	%rax, -320(%rbp)
	movq	-312(%rbp), %rax
	movq	%rax, -672(%rbp)                # 8-byte Spill
	cmpq	%rcx, %rax
	setae	%al
	testb	$1, %al
	jne	.LBB6_32
# %bb.12:                               #   in Loop: Header=BB6_10 Depth=1
	.loc	1 0 12                          # string.c3:0:12
	movq	-656(%rbp), %rax                # 8-byte Reload
	movq	-672(%rbp), %rcx                # 8-byte Reload
	.loc	1 591 12                        # string.c3:591:12
	movb	(%rax,%rcx), %al
	movb	%al, -321(%rbp)
.Ltmp73:
	.loc	1 593 8 is_stmt 1               # string.c3:593:8
	movb	-321(%rbp), %cl
	xorl	%eax, %eax
                                        # kill: def $al killed $al killed $eax
	cmpb	-41(%rbp), %cl
	movb	%al, -673(%rbp)                 # 1-byte Spill
	jne	.LBB6_21
# %bb.13:                               #   in Loop: Header=BB6_10 Depth=1
	.loc	1 593 22 is_stmt 0              # string.c3:593:22
	movq	-16(%rbp), %rax
	movq	%rax, -704(%rbp)                # 8-byte Spill
	movq	-8(%rbp), %rcx
	movq	%rcx, -696(%rbp)                # 8-byte Spill
	.loc	1 593 27                        # string.c3:593:27
	movq	-320(%rbp), %rax
	movq	%rax, -688(%rbp)                # 8-byte Spill
	cmpq	%rcx, %rax
	seta	%al
	testb	$1, %al
	jne	.LBB6_33
# %bb.14:                               #   in Loop: Header=BB6_10 Depth=1
	.loc	1 0 27                          # string.c3:0:27
	movq	-688(%rbp), %rdx                # 8-byte Reload
	.loc	1 593 31                        # string.c3:593:31
	movq	%rdx, %rcx
	addq	-40(%rbp), %rcx
	movq	%rcx, -720(%rbp)                # 8-byte Spill
	cmpq	%rcx, %rdx
	seta	%al
	subq	%rdx, %rcx
	movq	%rcx, -712(%rbp)                # 8-byte Spill
	testb	$1, %al
	jne	.LBB6_34
# %bb.15:                               #   in Loop: Header=BB6_10 Depth=1
	.loc	1 0 31                          # string.c3:0:31
	movq	-720(%rbp), %rcx                # 8-byte Reload
	movq	-696(%rbp), %rax                # 8-byte Reload
	.loc	1 593 22                        # string.c3:593:22
	cmpq	%rcx, %rax
	setb	%al
	subq	$1, %rcx
	movq	%rcx, -728(%rbp)                # 8-byte Spill
	testb	$1, %al
	jne	.LBB6_35
# %bb.16:                               #   in Loop: Header=BB6_10 Depth=1
	.loc	1 0 22                          # string.c3:0:22
	movq	-688(%rbp), %rdx                # 8-byte Reload
	movq	-704(%rbp), %rax                # 8-byte Reload
	movq	-720(%rbp), %rcx                # 8-byte Reload
	.loc	1 593 22                        # string.c3:593:22
	subq	%rdx, %rcx
	movq	%rcx, -760(%rbp)                # 8-byte Spill
	addq	%rdx, %rax
	movq	%rax, -752(%rbp)                # 8-byte Spill
	.loc	1 593 42                        # string.c3:593:42
	movq	-32(%rbp), %rax
	movq	%rax, -744(%rbp)                # 8-byte Spill
	movq	-24(%rbp), %rdx
	.loc	1 593 22                        # string.c3:593:22
	xorl	%eax, %eax
                                        # kill: def $al killed $al killed $eax
	cmpq	%rdx, %rcx
	movb	%al, -729(%rbp)                 # 1-byte Spill
	jne	.LBB6_20
# %bb.17:                               #   in Loop: Header=BB6_10 Depth=1
	.loc	1 0 22                          # string.c3:0:22
	movq	$0, -584(%rbp)
.LBB6_18:                               #   Parent Loop BB6_10 Depth=1
                                        # =>  This Inner Loop Header: Depth=2
	movq	-760(%rbp), %rdx                # 8-byte Reload
	movq	-584(%rbp), %rcx
	movq	%rcx, -768(%rbp)                # 8-byte Spill
	movb	$1, %al
	cmpq	%rdx, %rcx
	movb	%al, -729(%rbp)                 # 1-byte Spill
	jge	.LBB6_20
# %bb.19:                               #   in Loop: Header=BB6_18 Depth=2
	movq	-768(%rbp), %rax                # 8-byte Reload
	movq	-744(%rbp), %rdx                # 8-byte Reload
	movq	-752(%rbp), %rcx                # 8-byte Reload
	movb	(%rcx,%rax), %cl
	movb	(%rdx,%rax), %dl
	addq	$1, %rax
	movq	%rax, -584(%rbp)
	xorl	%eax, %eax
                                        # kill: def $al killed $al killed $eax
	cmpb	%dl, %cl
	movb	%al, -729(%rbp)                 # 1-byte Spill
	je	.LBB6_18
.LBB6_20:                               #   in Loop: Header=BB6_10 Depth=1
	movb	-729(%rbp), %al                 # 1-byte Reload
	movb	%al, -673(%rbp)                 # 1-byte Spill
.LBB6_21:                               #   in Loop: Header=BB6_10 Depth=1
	movb	-673(%rbp), %al                 # 1-byte Reload
	testb	$1, %al
	jne	.LBB6_22
	jmp	.LBB6_25
.LBB6_22:
	.loc	1 593 57                        # string.c3:593:57
	movq	-320(%rbp), %rax
	movq	%rax, -776(%rbp)                # 8-byte Spill
	.loc	1 580 10 is_stmt 1              # string.c3:580:10
	movq	-320(%rbp), %rax
	.loc	1 593 57                        # string.c3:593:57
	cmpq	-8(%rbp), %rax
	jb	.LBB6_24
# %bb.23:
	leaq	.panic_msg.25(%rip), %rdi
	movl	$37, %esi
	leaq	.file(%rip), %rdx
	movl	$9, %ecx
	leaq	.func.26(%rip), %r8
	movl	$8, %r9d
	movq	std.core.builtin.panic@GOTPCREL(%rip), %rax
	movl	$593, (%rsp)                    # imm = 0x251
	callq	*(%rax)
.LBB6_24:
	.loc	1 0 57 is_stmt 0                # string.c3:0:57
	movq	-600(%rbp), %rax                # 8-byte Reload
	movq	-776(%rbp), %rcx                # 8-byte Reload
	.loc	1 593 57                        # string.c3:593:57
	movq	%rcx, (%rax)
	xorl	%eax, %eax
                                        # kill: def $rax killed $eax
	.loc	1 593 57 epilogue_begin         # string.c3:593:57
	addq	$800, %rsp                      # imm = 0x320
	popq	%rbp
	.cfi_def_cfa %rsp, 8
	retq
.Ltmp74:
.LBB6_25:                               #   in Loop: Header=BB6_10 Depth=1
	.cfi_def_cfa %rbp, 16
	.loc	1 591 12 is_stmt 1              # string.c3:591:12
	movq	-312(%rbp), %rax
	addq	$1, %rax
	movq	%rax, -312(%rbp)
	jmp	.LBB6_10
.LBB6_26:
	jmp	.LBB6_27
.Ltmp75:
.LBB6_27:
	.loc	1 596 9                         # string.c3:596:9
	movq	std.core.builtin.NOT_FOUND@GOTPCREL(%rip), %rax
	.loc	1 596 9 epilogue_begin is_stmt 0 # string.c3:596:9
	addq	$800, %rsp                      # imm = 0x320
	popq	%rbp
	.cfi_def_cfa %rsp, 8
	retq
.LBB6_28:
	.cfi_def_cfa %rbp, 16
	.loc	1 0 9                           # string.c3:0:9
	movq	-624(%rbp), %rax                # 8-byte Reload
	movq	%rax, -56(%rbp)
	movq	($ct.long)@GOTPCREL(%rip), %rax
	movq	$0, -64(%rbp)
	movq	%rax, -88(%rbp)
	leaq	-56(%rbp), %rcx
	movq	%rcx, -96(%rbp)
	movq	%rax, -72(%rbp)
	leaq	-64(%rbp), %rax
	movq	%rax, -80(%rbp)
	leaq	-96(%rbp), %rax
	movq	%rax, -112(%rbp)
	movq	$2, -104(%rbp)
.Ltmp76:
	.loc	1 590 23 is_stmt 1              # string.c3:590:23
	leaq	.panic_msg(%rip), %rdi
	movl	$59, %esi
	leaq	.file(%rip), %rdx
	movl	$9, %ecx
	leaq	.func.26(%rip), %r8
	movl	$8, %r9d
	leaq	-112(%rbp), %rax
	movl	$590, (%rsp)                    # imm = 0x24E
	movq	(%rax), %r10
	movq	%r10, 8(%rsp)
	movq	8(%rax), %rax
	movq	%rax, 16(%rsp)
	callq	std.core.builtin.panicf@PLT
.LBB6_29:
	.loc	1 0 23 is_stmt 0                # string.c3:0:23
	movq	-632(%rbp), %rax                # 8-byte Reload
	movq	%rax, -120(%rbp)
	movq	($ct.ulong)@GOTPCREL(%rip), %rax
	movq	$0, -128(%rbp)
	movq	%rax, -152(%rbp)
	leaq	-120(%rbp), %rcx
	movq	%rcx, -160(%rbp)
	movq	%rax, -136(%rbp)
	leaq	-128(%rbp), %rax
	movq	%rax, -144(%rbp)
	leaq	-160(%rbp), %rax
	movq	%rax, -176(%rbp)
	movq	$2, -168(%rbp)
.Ltmp77:
	.loc	1 591 18 is_stmt 1              # string.c3:591:18
	leaq	.panic_msg.1(%rip), %rdi
	movl	$61, %esi
	leaq	.file(%rip), %rdx
	movl	$9, %ecx
	leaq	.func.26(%rip), %r8
	movl	$8, %r9d
	leaq	-176(%rbp), %rax
	movl	$591, (%rsp)                    # imm = 0x24F
	movq	(%rax), %r10
	movq	%r10, 8(%rsp)
	movq	8(%rax), %rax
	movq	%rax, 16(%rsp)
	callq	std.core.builtin.panicf@PLT
.LBB6_30:
	.loc	1 0 18 is_stmt 0                # string.c3:0:18
	movq	-648(%rbp), %rcx                # 8-byte Reload
	movq	$0, -184(%rbp)
	movq	($ct.ulong)@GOTPCREL(%rip), %rax
	movq	%rcx, -192(%rbp)
	movq	%rax, -216(%rbp)
	leaq	-184(%rbp), %rcx
	movq	%rcx, -224(%rbp)
	movq	%rax, -200(%rbp)
	leaq	-192(%rbp), %rax
	movq	%rax, -208(%rbp)
	leaq	-224(%rbp), %rax
	movq	%rax, -240(%rbp)
	movq	$2, -232(%rbp)
	.loc	1 591 18                        # string.c3:591:18
	leaq	.panic_msg.27(%rip), %rdi
	movl	$44, %esi
	leaq	.file(%rip), %rdx
	movl	$9, %ecx
	leaq	.func.26(%rip), %r8
	movl	$8, %r9d
	leaq	-240(%rbp), %rax
	movl	$591, (%rsp)                    # imm = 0x24F
	movq	(%rax), %r10
	movq	%r10, 8(%rsp)
	movq	8(%rax), %rax
	movq	%rax, 16(%rsp)
	callq	std.core.builtin.panicf@PLT
.LBB6_31:
	.loc	1 0 18                          # string.c3:0:18
	movq	-632(%rbp), %rcx                # 8-byte Reload
	movq	-648(%rbp), %rax                # 8-byte Reload
	movq	%rax, -248(%rbp)
	movq	($ct.ulong)@GOTPCREL(%rip), %rax
	movq	%rcx, -256(%rbp)
	movq	%rax, -280(%rbp)
	leaq	-248(%rbp), %rcx
	movq	%rcx, -288(%rbp)
	movq	%rax, -264(%rbp)
	leaq	-256(%rbp), %rax
	movq	%rax, -272(%rbp)
	leaq	-288(%rbp), %rax
	movq	%rax, -304(%rbp)
	movq	$2, -296(%rbp)
	.loc	1 591 18                        # string.c3:591:18
	leaq	.panic_msg.2(%rip), %rdi
	movl	$60, %esi
	leaq	.file(%rip), %rdx
	movl	$9, %ecx
	leaq	.func.26(%rip), %r8
	movl	$8, %r9d
	leaq	-304(%rbp), %rax
	movl	$591, (%rsp)                    # imm = 0x24F
	movq	(%rax), %r10
	movq	%r10, 8(%rsp)
	movq	8(%rax), %rax
	movq	%rax, 16(%rsp)
	callq	std.core.builtin.panicf@PLT
.LBB6_32:
	.loc	1 0 18                          # string.c3:0:18
	movq	-672(%rbp), %rcx                # 8-byte Reload
	movq	-664(%rbp), %rax                # 8-byte Reload
	movq	%rax, -336(%rbp)
	movq	($ct.ulong)@GOTPCREL(%rip), %rax
	movq	%rcx, -344(%rbp)
	movq	%rax, -376(%rbp)
	leaq	-336(%rbp), %rcx
	movq	%rcx, -384(%rbp)
	movq	%rax, -360(%rbp)
	leaq	-344(%rbp), %rax
	movq	%rax, -368(%rbp)
	leaq	-384(%rbp), %rax
	movq	%rax, -400(%rbp)
	movq	$2, -392(%rbp)
.Ltmp78:
	.loc	1 591 12                        # string.c3:591:12
	leaq	.panic_msg(%rip), %rdi
	movl	$59, %esi
	leaq	.file(%rip), %rdx
	movl	$9, %ecx
	leaq	.func.26(%rip), %r8
	movl	$8, %r9d
	leaq	-400(%rbp), %rax
	movl	$591, (%rsp)                    # imm = 0x24F
	movq	(%rax), %r10
	movq	%r10, 8(%rsp)
	movq	8(%rax), %rax
	movq	%rax, 16(%rsp)
	callq	std.core.builtin.panicf@PLT
.LBB6_33:
	.loc	1 0 12                          # string.c3:0:12
	movq	-688(%rbp), %rcx                # 8-byte Reload
	movq	-696(%rbp), %rax                # 8-byte Reload
	movq	%rax, -408(%rbp)
	movq	($ct.ulong)@GOTPCREL(%rip), %rax
	movq	%rcx, -416(%rbp)
	movq	%rax, -440(%rbp)
	leaq	-408(%rbp), %rcx
	movq	%rcx, -448(%rbp)
	movq	%rax, -424(%rbp)
	leaq	-416(%rbp), %rax
	movq	%rax, -432(%rbp)
	leaq	-448(%rbp), %rax
	movq	%rax, -464(%rbp)
	movq	$2, -456(%rbp)
.Ltmp79:
	.loc	1 593 22 is_stmt 1              # string.c3:593:22
	leaq	.panic_msg.1(%rip), %rdi
	movl	$61, %esi
	leaq	.file(%rip), %rdx
	movl	$9, %ecx
	leaq	.func.26(%rip), %r8
	movl	$8, %r9d
	leaq	-464(%rbp), %rax
	movl	$593, (%rsp)                    # imm = 0x251
	movq	(%rax), %r10
	movq	%r10, 8(%rsp)
	movq	8(%rax), %rax
	movq	%rax, 16(%rsp)
	callq	std.core.builtin.panicf@PLT
.LBB6_34:
	.loc	1 0 22 is_stmt 0                # string.c3:0:22
	movq	-712(%rbp), %rax                # 8-byte Reload
	movq	%rax, -472(%rbp)
	movq	($ct.long)@GOTPCREL(%rip), %rax
	movq	%rax, -488(%rbp)
	leaq	-472(%rbp), %rax
	movq	%rax, -496(%rbp)
	leaq	-496(%rbp), %rax
	movq	%rax, -512(%rbp)
	movq	$1, -504(%rbp)
	.loc	1 593 22                        # string.c3:593:22
	leaq	.panic_msg.5(%rip), %rdi
	movl	$43, %esi
	leaq	.file(%rip), %rdx
	movl	$9, %ecx
	leaq	.func.26(%rip), %r8
	movl	$8, %r9d
	leaq	-512(%rbp), %rax
	movl	$593, (%rsp)                    # imm = 0x251
	movq	(%rax), %r10
	movq	%r10, 8(%rsp)
	movq	8(%rax), %rax
	movq	%rax, 16(%rsp)
	callq	std.core.builtin.panicf@PLT
.LBB6_35:
	.loc	1 0 22                          # string.c3:0:22
	movq	-696(%rbp), %rcx                # 8-byte Reload
	movq	-728(%rbp), %rax                # 8-byte Reload
	movq	%rax, -520(%rbp)
	movq	($ct.ulong)@GOTPCREL(%rip), %rax
	movq	%rcx, -528(%rbp)
	movq	%rax, -552(%rbp)
	leaq	-520(%rbp), %rcx
	movq	%rcx, -560(%rbp)
	movq	%rax, -536(%rbp)
	leaq	-528(%rbp), %rax
	movq	%rax, -544(%rbp)
	leaq	-560(%rbp), %rax
	movq	%rax, -576(%rbp)
	movq	$2, -568(%rbp)
	.loc	1 593 22                        # string.c3:593:22
	leaq	.panic_msg.2(%rip), %rdi
	movl	$60, %esi
	leaq	.file(%rip), %rdx
	movl	$9, %ecx
	leaq	.func.26(%rip), %r8
	movl	$8, %r9d
	leaq	-576(%rbp), %rax
	movl	$593, (%rsp)                    # imm = 0x251
	movq	(%rax), %r10
	movq	%r10, 8(%rsp)
	movq	8(%rax), %rax
	movq	%rax, 16(%rsp)
	callq	std.core.builtin.panicf@PLT
.Ltmp80:
.Lfunc_end6:
	.size	std.core.String.index_of, .Lfunc_end6-std.core.String.index_of
	.cfi_endproc
                                        # -- End function
	.section	.text.std.core.string.ZString.str_view,"axG",@progbits,std.core.string.ZString.str_view,comdat
	.weak	std.core.string.ZString.str_view # -- Begin function std.core.string.ZString.str_view
	.p2align	4, 0x90
	.type	std.core.string.ZString.str_view,@function
std.core.string.ZString.str_view:       # @std.core.string.ZString.str_view
.Lfunc_begin7:
	.loc	1 638 0 is_stmt 1               # string.c3:638:0
	.cfi_startproc
# %bb.0:
	pushq	%rbp
	.cfi_def_cfa_offset 16
	.cfi_offset %rbp, -16
	movq	%rsp, %rbp
	.cfi_def_cfa_register %rbp
	subq	$112, %rsp
	movq	%rdi, -8(%rbp)
.Ltmp81:
	.loc	1 640 18 prologue_end           # string.c3:640:18
	movq	-8(%rbp), %rax
	movq	%rax, -88(%rbp)                 # 8-byte Spill
	.loc	1 640 24 is_stmt 0              # string.c3:640:24
	movq	-8(%rbp), %rdi
	callq	std.core.string.ZString.len@PLT
	movq	%rax, %rcx
	addq	$0, %rcx
	movq	%rcx, -80(%rbp)                 # 8-byte Spill
	xorl	%eax, %eax
                                        # kill: def $rax killed $eax
	cmpq	%rcx, %rax
	seta	%al
	subq	$0, %rcx
	movq	%rcx, -72(%rbp)                 # 8-byte Spill
	testb	$1, %al
	jne	.LBB7_2
# %bb.1:
	.loc	1 0 24                          # string.c3:0:24
	movq	-88(%rbp), %rax                 # 8-byte Reload
	movq	-80(%rbp), %rcx                 # 8-byte Reload
	movq	%rcx, -56(%rbp)
	movq	%rax, -64(%rbp)
	movq	-64(%rbp), %rax
	movq	-56(%rbp), %rdx
	addq	$112, %rsp
	popq	%rbp
	.cfi_def_cfa %rsp, 8
	retq
.LBB7_2:
	.cfi_def_cfa %rbp, 16
	movq	-72(%rbp), %rax                 # 8-byte Reload
	movq	%rax, -16(%rbp)
	movq	($ct.long)@GOTPCREL(%rip), %rax
	movq	%rax, -24(%rbp)
	leaq	-16(%rbp), %rax
	movq	%rax, -32(%rbp)
	leaq	-32(%rbp), %rax
	movq	%rax, -48(%rbp)
	movq	$1, -40(%rbp)
	.loc	1 640 9                         # string.c3:640:9
	leaq	.panic_msg.5(%rip), %rdi
	movl	$43, %esi
	leaq	.file(%rip), %rdx
	movl	$9, %ecx
	leaq	.func.28(%rip), %r8
	movl	$8, %r9d
	leaq	-48(%rbp), %rax
	movl	$640, (%rsp)                    # imm = 0x280
	movq	(%rax), %r10
	movq	%r10, 8(%rsp)
	movq	8(%rax), %rax
	movq	%rax, 16(%rsp)
	callq	std.core.builtin.panicf@PLT
.Ltmp82:
.Lfunc_end7:
	.size	std.core.string.ZString.str_view, .Lfunc_end7-std.core.string.ZString.str_view
	.cfi_endproc
                                        # -- End function
	.section	.text.std.core.string.ZString.len,"axG",@progbits,std.core.string.ZString.len,comdat
	.weak	std.core.string.ZString.len     # -- Begin function std.core.string.ZString.len
	.p2align	4, 0x90
	.type	std.core.string.ZString.len,@function
std.core.string.ZString.len:            # @std.core.string.ZString.len
.Lfunc_begin8:
	.loc	1 654 0 is_stmt 1               # string.c3:654:0
	.cfi_startproc
# %bb.0:
	pushq	%rbp
	.cfi_def_cfa_offset 16
	.cfi_offset %rbp, -16
	movq	%rsp, %rbp
	.cfi_def_cfa_register %rbp
	subq	$48, %rsp
	movq	%rdi, -8(%rbp)
.Ltmp83:
	.loc	1 656 6 prologue_end            # string.c3:656:6
	movq	$0, -16(%rbp)
.Ltmp84:
	.loc	1 657 19                        # string.c3:657:19
	movq	-8(%rbp), %rax
	movq	%rax, -24(%rbp)
.LBB8_1:                                # =>This Inner Loop Header: Depth=1
	.loc	1 657 33 is_stmt 0              # string.c3:657:33
	movq	-24(%rbp), %rax
	movq	%rax, -32(%rbp)                 # 8-byte Spill
	cmpq	$0, %rax
	sete	%al
	testb	$1, %al
	jne	.LBB8_5
# %bb.2:                                #   in Loop: Header=BB8_1 Depth=1
	.loc	1 0 33                          # string.c3:0:33
	movq	-32(%rbp), %rax                 # 8-byte Reload
	.loc	1 657 33                        # string.c3:657:33
	cmpb	$0, (%rax)
	je	.LBB8_4
# %bb.3:                                #   in Loop: Header=BB8_1 Depth=1
	.loc	1 657 45                        # string.c3:657:45
	movq	-16(%rbp), %rax
	addq	$1, %rax
	movq	%rax, -16(%rbp)
	.loc	1 657 38                        # string.c3:657:38
	movq	-24(%rbp), %rax
	addq	$1, %rax
	movq	%rax, -24(%rbp)
	jmp	.LBB8_1
.Ltmp85:
.LBB8_4:
	.loc	1 658 9 is_stmt 1               # string.c3:658:9
	movq	-16(%rbp), %rax
	.loc	1 658 9 epilogue_begin is_stmt 0 # string.c3:658:9
	addq	$48, %rsp
	popq	%rbp
	.cfi_def_cfa %rsp, 8
	retq
.LBB8_5:
	.cfi_def_cfa %rbp, 16
.Ltmp86:
	.loc	1 657 33 is_stmt 1              # string.c3:657:33
	leaq	.panic_msg.29(%rip), %rdi
	movl	$44, %esi
	leaq	.file(%rip), %rdx
	movl	$9, %ecx
	leaq	.func.30(%rip), %r8
	movl	$3, %r9d
	movq	std.core.builtin.panic@GOTPCREL(%rip), %rax
	movl	$657, (%rsp)                    # imm = 0x291
	callq	*(%rax)
.Ltmp87:
.Lfunc_end8:
	.size	std.core.string.ZString.len, .Lfunc_end8-std.core.string.ZString.len
	.cfi_endproc
                                        # -- End function
	.section	.text.std.core.String.zstr_copy,"axG",@progbits,std.core.String.zstr_copy,comdat
	.weak	std.core.String.zstr_copy       # -- Begin function std.core.String.zstr_copy
	.p2align	4, 0x90
	.type	std.core.String.zstr_copy,@function
std.core.String.zstr_copy:              # @std.core.String.zstr_copy
.Lfunc_begin9:
	.loc	1 668 0                         # string.c3:668:0
	.cfi_startproc
# %bb.0:
	pushq	%rbp
	.cfi_def_cfa_offset 16
	.cfi_offset %rbp, -16
	movq	%rsp, %rbp
	.cfi_def_cfa_register %rbp
	subq	$288, %rsp                      # imm = 0x120
	movq	$0, -136(%rbp)
	movq	%rdi, -16(%rbp)
	movq	%rsi, -8(%rbp)
	movq	%rdx, -32(%rbp)
	movq	%rcx, -24(%rbp)
.Ltmp88:
	.loc	1 670 12 prologue_end           # string.c3:670:12
	movq	-8(%rbp), %rax
	movq	%rax, -40(%rbp)
	movq	-32(%rbp), %rax
	movq	%rax, -64(%rbp)
	movq	-24(%rbp), %rax
	movq	%rax, -56(%rbp)
	.loc	1 671 43                        # string.c3:671:43
	movq	-40(%rbp), %rax
	addq	$1, %rax
	movq	%rax, -72(%rbp)
	movq	-64(%rbp), %rax
	movq	%rax, -96(%rbp)
	movq	-56(%rbp), %rax
	movq	%rax, -88(%rbp)
	movq	-72(%rbp), %rax
	movq	%rax, -104(%rbp)
.Ltmp89:
	.loc	2 80 6                          # mem_allocator.c3:80:6
	cmpq	$0, -104(%rbp)
	jne	.LBB9_2
# %bb.1:
	.loc	2 80 20 is_stmt 0               # mem_allocator.c3:80:20
	movq	$0, -112(%rbp)
	jmp	.LBB9_20
.LBB9_2:
	.loc	2 86 28 is_stmt 1               # mem_allocator.c3:86:28
	movq	-104(%rbp), %rax
	movq	%rax, -216(%rbp)                # 8-byte Spill
	.loc	2 38 12                         # mem_allocator.c3:38:12
	movb	$1, %al
	testb	$1, %al
	movb	%al, -201(%rbp)                 # 1-byte Spill
	jne	.LBB9_6
# %bb.3:
	.loc	2 0 12 is_stmt 0                # mem_allocator.c3:0:12
	movq	$0, -120(%rbp)
.Ltmp90:
	.loc	3 992 9 is_stmt 1               # math.c3:992:9
	xorl	%eax, %eax
                                        # kill: def $al killed $al killed $eax
	xorl	%ecx, %ecx
                                        # kill: def $rcx killed $ecx
	cmpq	-120(%rbp), %rcx
	movb	%al, -217(%rbp)                 # 1-byte Spill
	je	.LBB9_5
# %bb.4:
	.loc	3 992 20 is_stmt 0              # math.c3:992:20
	movq	-120(%rbp), %rax
	.loc	3 992 25                        # math.c3:992:25
	movq	-120(%rbp), %rcx
	subq	$1, %rcx
	.loc	3 992 20                        # math.c3:992:20
	andq	%rcx, %rax
	.loc	3 992 19                        # math.c3:992:19
	cmpq	$0, %rax
	sete	%al
	movb	%al, -217(%rbp)                 # 1-byte Spill
.LBB9_5:
	.loc	3 0 19                          # math.c3:0:19
	movb	-217(%rbp), %al                 # 1-byte Reload
	movb	%al, -201(%rbp)                 # 1-byte Spill
.LBB9_6:
	movb	-201(%rbp), %al                 # 1-byte Reload
	.loc	3 992 19                        # math.c3:992:19
	testb	$1, %al
	jne	.LBB9_8
.Ltmp91:
# %bb.7:
	.loc	2 86 10 is_stmt 1               # mem_allocator.c3:86:10
	leaq	.panic_msg.8(%rip), %rdi
	movl	$65, %esi
	leaq	.file.9(%rip), %rdx
	movl	$16, %ecx
	leaq	.func.31(%rip), %r8
	movl	$9, %r9d
	movq	std.core.builtin.panic@GOTPCREL(%rip), %rax
	movl	$86, (%rsp)
	callq	*(%rax)
.LBB9_8:
	movb	$1, %al
	testb	$1, %al
	jne	.LBB9_10
	jmp	.LBB9_9
.LBB9_9:
	leaq	.panic_msg.10(%rip), %rdi
	movl	$80, %esi
	leaq	.file.9(%rip), %rdx
	movl	$16, %ecx
	leaq	.func.31(%rip), %r8
	movl	$9, %r9d
	movq	std.core.builtin.panic@GOTPCREL(%rip), %rax
	movl	$86, (%rsp)
	callq	*(%rax)
.LBB9_10:
	.loc	2 0 10 is_stmt 0                # mem_allocator.c3:0:10
	movq	-216(%rbp), %rcx                # 8-byte Reload
	.loc	2 86 10                         # mem_allocator.c3:86:10
	xorl	%eax, %eax
                                        # kill: def $rax killed $eax
	cmpq	%rcx, %rax
	jb	.LBB9_12
# %bb.11:
	leaq	.panic_msg.11(%rip), %rdi
	movl	$59, %esi
	leaq	.file.9(%rip), %rdx
	movl	$16, %ecx
	leaq	.func.31(%rip), %r8
	movl	$9, %r9d
	movq	std.core.builtin.panic@GOTPCREL(%rip), %rax
	movl	$86, (%rsp)
	callq	*(%rax)
.LBB9_12:
	movq	-88(%rbp), %rax
	movq	%rax, -232(%rbp)                # 8-byte Spill
	cmpq	-136(%rbp), %rax
	je	.LBB9_14
# %bb.13:
	.loc	2 0 10                          # mem_allocator.c3:0:10
	movq	-232(%rbp), %rax                # 8-byte Reload
	movq	16(%rax), %rdi
	movq	($sel.acquire)@GOTPCREL(%rip), %rsi
	callq	.dyn_search@PLT
	movq	-232(%rbp), %rcx                # 8-byte Reload
	movq	%rax, -128(%rbp)
	movq	%rcx, -136(%rbp)
	movq	%rax, -240(%rbp)                # 8-byte Spill
	jmp	.LBB9_15
.LBB9_14:
	movq	-128(%rbp), %rax
	movq	%rax, -240(%rbp)                # 8-byte Spill
.LBB9_15:
	movq	-240(%rbp), %rax                # 8-byte Reload
	movq	%rax, -248(%rbp)                # 8-byte Spill
	cmpq	$0, %rax
	jne	.LBB9_17
# %bb.16:
	.loc	2 86 10                         # mem_allocator.c3:86:10
	leaq	.panic_msg.12(%rip), %rdi
	movl	$44, %esi
	leaq	.file.9(%rip), %rdx
	movl	$16, %ecx
	leaq	.func.31(%rip), %r8
	movl	$9, %r9d
	movq	std.core.builtin.panic@GOTPCREL(%rip), %rax
	movl	$86, (%rsp)
	callq	*(%rax)
.LBB9_17:
	.loc	2 0 10                          # mem_allocator.c3:0:10
	movq	-248(%rbp), %rax                # 8-byte Reload
	movq	-216(%rbp), %rdx                # 8-byte Reload
	movq	-96(%rbp), %rsi
	.loc	2 86 10                         # mem_allocator.c3:86:10
	leaq	-144(%rbp), %rdi
	xorl	%ecx, %ecx
	xorl	%r8d, %r8d
                                        # kill: def $r8 killed $r8d
	callq	*%rax
	movq	%rax, -256(%rbp)                # 8-byte Spill
	cmpq	$0, %rax
	sete	%al
	testb	$1, %al
	jne	.LBB9_19
# %bb.18:
	.loc	2 0 10                          # mem_allocator.c3:0:10
	movq	-256(%rbp), %rax                # 8-byte Reload
	.loc	2 86 10                         # mem_allocator.c3:86:10
	movq	%rax, -80(%rbp)
	jmp	.LBB9_21
.LBB9_19:
	movq	-144(%rbp), %rax
	movq	%rax, -112(%rbp)
.LBB9_20:
	jmp	.LBB9_22
.LBB9_21:
	movq	($ct.fault)@GOTPCREL(%rip), %rax
	movq	%rax, -152(%rbp)
	leaq	-80(%rbp), %rax
	movq	%rax, -160(%rbp)
	leaq	-160(%rbp), %rax
	movq	%rax, -176(%rbp)
	movq	$1, -168(%rbp)
.Ltmp92:
	.loc	2 75 9 is_stmt 1                # mem_allocator.c3:75:9
	leaq	.panic_msg.13(%rip), %rdi
	movl	$36, %esi
	leaq	.file.9(%rip), %rdx
	movl	$16, %ecx
	leaq	.func.31(%rip), %r8
	movl	$9, %r9d
	leaq	-176(%rbp), %rax
	movl	$75, (%rsp)
	movq	(%rax), %r10
	movq	%r10, 8(%rsp)
	movq	8(%rax), %rax
	movq	%rax, 16(%rsp)
	callq	std.core.builtin.panicf@PLT
.LBB9_22:
	movq	-112(%rbp), %rax
	movq	%rax, -48(%rbp)
.Ltmp93:
	.loc	1 672 12                        # string.c3:672:12
	movq	-48(%rbp), %rax
	movq	%rax, -184(%rbp)
	.loc	1 672 17 is_stmt 0              # string.c3:672:17
	movq	-16(%rbp), %rax
	movq	%rax, -192(%rbp)
	movq	-40(%rbp), %rax
	movq	%rax, -200(%rbp)
.Ltmp94:
	.file	5 "/nix/store/ihf6dmy4cll298qphlwhnmgml1y02khm-c3c-0.7.5/lib/c3/std/core" "mem.c3"
	.loc	5 357 23 is_stmt 1              # mem.c3:357:23
	cmpq	$0, -184(%rbp)
	jne	.LBB9_24
# %bb.23:
	leaq	.panic_msg.32(%rip), %rdi
	movl	$37, %esi
	leaq	.file.33(%rip), %rdx
	movl	$6, %ecx
	leaq	.func.31(%rip), %r8
	movl	$9, %r9d
	movq	std.core.builtin.panic@GOTPCREL(%rip), %rax
	movl	$357, (%rsp)                    # imm = 0x165
	callq	*(%rax)
.LBB9_24:
	.loc	5 354 11                        # mem.c3:354:11
	movb	$1, %al
	cmpq	$0, -192(%rbp)
	movb	%al, -257(%rbp)                 # 1-byte Spill
	jne	.LBB9_26
# %bb.25:
	.loc	5 354 26 is_stmt 0              # mem.c3:354:26
	xorl	%eax, %eax
                                        # kill: def $rax killed $eax
	cmpq	-200(%rbp), %rax
	sete	%al
	movb	%al, -257(%rbp)                 # 1-byte Spill
.LBB9_26:
	.loc	5 0 26                          # mem.c3:0:26
	movb	-257(%rbp), %al                 # 1-byte Reload
	.loc	5 354 26                        # mem.c3:354:26
	testb	$1, %al
	jne	.LBB9_28
# %bb.27:
	.loc	5 672 2 is_stmt 1               # mem.c3:672:2
	leaq	.panic_msg.34(%rip), %rdi
	movl	$94, %esi
	leaq	.file(%rip), %rdx
	movl	$9, %r9d
	leaq	.func.31(%rip), %r8
	movq	std.core.builtin.panic@GOTPCREL(%rip), %rax
	movq	%r9, %rcx
	movl	$672, (%rsp)                    # imm = 0x2A0
	callq	*(%rax)
.LBB9_28:
	.loc	5 355 11                        # mem.c3:355:11
	movb	$1, %al
	xorl	%ecx, %ecx
                                        # kill: def $rcx killed $ecx
	cmpq	-200(%rbp), %rcx
	movb	%al, -258(%rbp)                 # 1-byte Spill
	je	.LBB9_30
# %bb.29:
	.loc	5 355 23 is_stmt 0              # mem.c3:355:23
	movq	-184(%rbp), %rax
	.loc	5 355 29                        # mem.c3:355:29
	addq	-200(%rbp), %rax
	.loc	5 355 23                        # mem.c3:355:23
	cmpq	-192(%rbp), %rax
	setbe	%al
	movb	%al, -258(%rbp)                 # 1-byte Spill
.LBB9_30:
	.loc	5 0 23                          # mem.c3:0:23
	movb	-258(%rbp), %cl                 # 1-byte Reload
	.loc	5 355 23                        # mem.c3:355:23
	movb	$1, %al
	testb	$1, %cl
	movb	%al, -259(%rbp)                 # 1-byte Spill
	jne	.LBB9_32
# %bb.31:
	.loc	5 355 43                        # mem.c3:355:43
	movq	-192(%rbp), %rax
	.loc	5 355 49                        # mem.c3:355:49
	addq	-200(%rbp), %rax
	.loc	5 355 43                        # mem.c3:355:43
	cmpq	-184(%rbp), %rax
	setbe	%al
	movb	%al, -259(%rbp)                 # 1-byte Spill
.LBB9_32:
	.loc	5 0 43                          # mem.c3:0:43
	movb	-259(%rbp), %al                 # 1-byte Reload
	.loc	5 355 43                        # mem.c3:355:43
	testb	$1, %al
	jne	.LBB9_34
# %bb.33:
	.loc	5 672 2 is_stmt 1               # mem.c3:672:2
	leaq	.panic_msg.35(%rip), %rdi
	movl	$95, %esi
	leaq	.file(%rip), %rdx
	movl	$9, %r9d
	leaq	.func.31(%rip), %r8
	movq	std.core.builtin.panic@GOTPCREL(%rip), %rax
	movq	%r9, %rcx
	movl	$672, (%rsp)                    # imm = 0x2A0
	callq	*(%rax)
.Ltmp95:
.LBB9_34:
	.loc	5 359 11                        # mem.c3:359:11
	movq	-184(%rbp), %rdi
	.loc	5 359 16 is_stmt 0              # mem.c3:359:16
	movq	-192(%rbp), %rsi
	.loc	5 359 21                        # mem.c3:359:21
	movq	-200(%rbp), %rdx
	.loc	5 359 26                        # mem.c3:359:26
	callq	memcpy@PLT
.Ltmp96:
	.loc	1 673 2 is_stmt 1               # string.c3:673:2
	movq	-48(%rbp), %rax
	.loc	1 673 6 is_stmt 0               # string.c3:673:6
	movq	-40(%rbp), %rcx
	movb	$0, (%rax,%rcx)
	.loc	1 674 9 is_stmt 1               # string.c3:674:9
	movq	-48(%rbp), %rax
	.loc	1 674 9 epilogue_begin is_stmt 0 # string.c3:674:9
	addq	$288, %rsp                      # imm = 0x120
	popq	%rbp
	.cfi_def_cfa %rsp, 8
	retq
.Ltmp97:
.Lfunc_end9:
	.size	std.core.String.zstr_copy, .Lfunc_end9-std.core.String.zstr_copy
	.cfi_endproc
                                        # -- End function
	.section	.text.std.core.String.zstr_tcopy,"axG",@progbits,std.core.String.zstr_tcopy,comdat
	.weak	std.core.String.zstr_tcopy      # -- Begin function std.core.String.zstr_tcopy
	.p2align	4, 0x90
	.type	std.core.String.zstr_tcopy,@function
std.core.String.zstr_tcopy:             # @std.core.String.zstr_tcopy
.Lfunc_begin10:
	.loc	1 691 0 is_stmt 1               # string.c3:691:0
	.cfi_startproc
# %bb.0:
	pushq	%rbp
	.cfi_def_cfa_offset 16
	.cfi_offset %rbp, -16
	movq	%rsp, %rbp
	.cfi_def_cfa_register %rbp
	subq	$288, %rsp                      # imm = 0x120
	movq	%rdi, -216(%rbp)
	movq	%rsi, -208(%rbp)
.Ltmp98:
	.loc	1 691 54 prologue_end           # string.c3:691:54
	movq	std.core.mem.allocator.current_temp@GOTTPOFF(%rip), %rcx
	movq	%fs:0, %rax
	addq	%rcx, %rax
	movq	-216(%rbp), %rsi
	movq	-208(%rbp), %rdx
	movq	(%rax), %rcx
	movq	8(%rax), %rax
	movq	$0, -128(%rbp)
	movq	%rsi, -16(%rbp)
	movq	%rdx, -8(%rbp)
	movq	%rcx, -32(%rbp)
	movq	%rax, -24(%rbp)
.Ltmp99:
	.loc	1 670 12                        # string.c3:670:12
	movq	-8(%rbp), %rax
	movq	%rax, -40(%rbp)
	movq	-32(%rbp), %rax
	movq	%rax, -64(%rbp)
	movq	-24(%rbp), %rax
	movq	%rax, -56(%rbp)
	.loc	1 671 43                        # string.c3:671:43
	movq	-40(%rbp), %rax
	addq	$1, %rax
	movq	%rax, -72(%rbp)
	movq	-64(%rbp), %rax
	movq	%rax, -96(%rbp)
	movq	-56(%rbp), %rax
	movq	%rax, -88(%rbp)
	movq	-72(%rbp), %rax
	movq	%rax, -104(%rbp)
.Ltmp100:
	.loc	2 80 6                          # mem_allocator.c3:80:6
	cmpq	$0, -104(%rbp)
	jne	.LBB10_2
# %bb.1:
	.loc	2 80 20 is_stmt 0               # mem_allocator.c3:80:20
	movq	$0, -112(%rbp)
	jmp	.LBB10_12
.LBB10_2:
	.loc	2 86 28 is_stmt 1               # mem_allocator.c3:86:28
	movq	-104(%rbp), %rcx
	movq	%rcx, -224(%rbp)                # 8-byte Spill
	.loc	2 86 10 is_stmt 0               # mem_allocator.c3:86:10
	xorl	%eax, %eax
                                        # kill: def $rax killed $eax
	cmpq	%rcx, %rax
	jb	.LBB10_4
# %bb.3:
	leaq	.panic_msg.11(%rip), %rdi
	movl	$59, %esi
	leaq	.file.9(%rip), %rdx
	movl	$16, %ecx
	leaq	.func.31(%rip), %r8
	movl	$9, %r9d
	movq	std.core.builtin.panic@GOTPCREL(%rip), %rax
	movl	$86, (%rsp)
	callq	*(%rax)
.LBB10_4:
	movq	-88(%rbp), %rax
	movq	%rax, -232(%rbp)                # 8-byte Spill
	cmpq	-128(%rbp), %rax
	je	.LBB10_6
# %bb.5:
	.loc	2 0 10                          # mem_allocator.c3:0:10
	movq	-232(%rbp), %rax                # 8-byte Reload
	movq	16(%rax), %rdi
	movq	($sel.acquire)@GOTPCREL(%rip), %rsi
	callq	.dyn_search@PLT
	movq	-232(%rbp), %rcx                # 8-byte Reload
	movq	%rax, -120(%rbp)
	movq	%rcx, -128(%rbp)
	movq	%rax, -240(%rbp)                # 8-byte Spill
	jmp	.LBB10_7
.LBB10_6:
	movq	-120(%rbp), %rax
	movq	%rax, -240(%rbp)                # 8-byte Spill
.LBB10_7:
	movq	-240(%rbp), %rax                # 8-byte Reload
	movq	%rax, -248(%rbp)                # 8-byte Spill
	cmpq	$0, %rax
	jne	.LBB10_9
# %bb.8:
	.loc	2 86 10                         # mem_allocator.c3:86:10
	leaq	.panic_msg.12(%rip), %rdi
	movl	$44, %esi
	leaq	.file.9(%rip), %rdx
	movl	$16, %ecx
	leaq	.func.31(%rip), %r8
	movl	$9, %r9d
	movq	std.core.builtin.panic@GOTPCREL(%rip), %rax
	movl	$86, (%rsp)
	callq	*(%rax)
.LBB10_9:
	.loc	2 0 10                          # mem_allocator.c3:0:10
	movq	-248(%rbp), %rax                # 8-byte Reload
	movq	-224(%rbp), %rdx                # 8-byte Reload
	movq	-96(%rbp), %rsi
	.loc	2 86 10                         # mem_allocator.c3:86:10
	leaq	-136(%rbp), %rdi
	xorl	%ecx, %ecx
	xorl	%r8d, %r8d
                                        # kill: def $r8 killed $r8d
	callq	*%rax
	movq	%rax, -256(%rbp)                # 8-byte Spill
	cmpq	$0, %rax
	sete	%al
	testb	$1, %al
	jne	.LBB10_11
# %bb.10:
	.loc	2 0 10                          # mem_allocator.c3:0:10
	movq	-256(%rbp), %rax                # 8-byte Reload
	.loc	2 86 10                         # mem_allocator.c3:86:10
	movq	%rax, -80(%rbp)
	movq	($ct.fault)@GOTPCREL(%rip), %rax
	movq	%rax, -152(%rbp)
	leaq	-80(%rbp), %rax
	movq	%rax, -160(%rbp)
	leaq	-160(%rbp), %rax
	movq	%rax, -176(%rbp)
	movq	$1, -168(%rbp)
.Ltmp101:
	.loc	2 75 9 is_stmt 1                # mem_allocator.c3:75:9
	leaq	.panic_msg.13(%rip), %rdi
	movl	$36, %esi
	leaq	.file.9(%rip), %rdx
	movl	$16, %ecx
	leaq	.func.31(%rip), %r8
	movl	$9, %r9d
	leaq	-176(%rbp), %rax
	movl	$75, (%rsp)
	movq	(%rax), %r10
	movq	%r10, 8(%rsp)
	movq	8(%rax), %rax
	movq	%rax, 16(%rsp)
	callq	std.core.builtin.panicf@PLT
.LBB10_11:
.Ltmp102:
	.loc	2 86 10                         # mem_allocator.c3:86:10
	movq	-136(%rbp), %rax
	movq	%rax, -112(%rbp)
.Ltmp103:
.LBB10_12:
	.loc	2 75 9                          # mem_allocator.c3:75:9
	movq	-112(%rbp), %rax
	movq	%rax, -48(%rbp)
.Ltmp104:
	.loc	1 672 12                        # string.c3:672:12
	movq	-48(%rbp), %rax
	movq	%rax, -184(%rbp)
	.loc	1 672 17 is_stmt 0              # string.c3:672:17
	movq	-16(%rbp), %rax
	movq	%rax, -192(%rbp)
	movq	-40(%rbp), %rax
	movq	%rax, -200(%rbp)
.Ltmp105:
	.loc	5 357 23 is_stmt 1              # mem.c3:357:23
	cmpq	$0, -184(%rbp)
	jne	.LBB10_14
# %bb.13:
	leaq	.panic_msg.32(%rip), %rdi
	movl	$37, %esi
	leaq	.file.33(%rip), %rdx
	movl	$6, %ecx
	leaq	.func.31(%rip), %r8
	movl	$9, %r9d
	movq	std.core.builtin.panic@GOTPCREL(%rip), %rax
	movl	$357, (%rsp)                    # imm = 0x165
	callq	*(%rax)
.LBB10_14:
	.loc	5 354 11                        # mem.c3:354:11
	movb	$1, %al
	cmpq	$0, -192(%rbp)
	movb	%al, -257(%rbp)                 # 1-byte Spill
	jne	.LBB10_16
# %bb.15:
	.loc	5 354 26 is_stmt 0              # mem.c3:354:26
	xorl	%eax, %eax
                                        # kill: def $rax killed $eax
	cmpq	-200(%rbp), %rax
	sete	%al
	movb	%al, -257(%rbp)                 # 1-byte Spill
.LBB10_16:
	.loc	5 0 26                          # mem.c3:0:26
	movb	-257(%rbp), %al                 # 1-byte Reload
	.loc	5 354 26                        # mem.c3:354:26
	testb	$1, %al
	jne	.LBB10_18
# %bb.17:
	.loc	5 672 2 is_stmt 1               # mem.c3:672:2
	leaq	.panic_msg.34(%rip), %rdi
	movl	$94, %esi
	leaq	.file(%rip), %rdx
	movl	$9, %r9d
	leaq	.func.31(%rip), %r8
	movq	std.core.builtin.panic@GOTPCREL(%rip), %rax
	movq	%r9, %rcx
	movl	$672, (%rsp)                    # imm = 0x2A0
	callq	*(%rax)
.LBB10_18:
	.loc	5 355 11                        # mem.c3:355:11
	movb	$1, %al
	xorl	%ecx, %ecx
                                        # kill: def $rcx killed $ecx
	cmpq	-200(%rbp), %rcx
	movb	%al, -258(%rbp)                 # 1-byte Spill
	je	.LBB10_20
# %bb.19:
	.loc	5 355 23 is_stmt 0              # mem.c3:355:23
	movq	-184(%rbp), %rax
	.loc	5 355 29                        # mem.c3:355:29
	addq	-200(%rbp), %rax
	.loc	5 355 23                        # mem.c3:355:23
	cmpq	-192(%rbp), %rax
	setbe	%al
	movb	%al, -258(%rbp)                 # 1-byte Spill
.LBB10_20:
	.loc	5 0 23                          # mem.c3:0:23
	movb	-258(%rbp), %cl                 # 1-byte Reload
	.loc	5 355 23                        # mem.c3:355:23
	movb	$1, %al
	testb	$1, %cl
	movb	%al, -259(%rbp)                 # 1-byte Spill
	jne	.LBB10_22
# %bb.21:
	.loc	5 355 43                        # mem.c3:355:43
	movq	-192(%rbp), %rax
	.loc	5 355 49                        # mem.c3:355:49
	addq	-200(%rbp), %rax
	.loc	5 355 43                        # mem.c3:355:43
	cmpq	-184(%rbp), %rax
	setbe	%al
	movb	%al, -259(%rbp)                 # 1-byte Spill
.LBB10_22:
	.loc	5 0 43                          # mem.c3:0:43
	movb	-259(%rbp), %al                 # 1-byte Reload
	.loc	5 355 43                        # mem.c3:355:43
	testb	$1, %al
	jne	.LBB10_24
# %bb.23:
	.loc	5 672 2 is_stmt 1               # mem.c3:672:2
	leaq	.panic_msg.35(%rip), %rdi
	movl	$95, %esi
	leaq	.file(%rip), %rdx
	movl	$9, %r9d
	leaq	.func.31(%rip), %r8
	movq	std.core.builtin.panic@GOTPCREL(%rip), %rax
	movq	%r9, %rcx
	movl	$672, (%rsp)                    # imm = 0x2A0
	callq	*(%rax)
.Ltmp106:
.LBB10_24:
	.loc	5 359 11                        # mem.c3:359:11
	movq	-184(%rbp), %rdi
	.loc	5 359 16 is_stmt 0              # mem.c3:359:16
	movq	-192(%rbp), %rsi
	.loc	5 359 21                        # mem.c3:359:21
	movq	-200(%rbp), %rdx
	.loc	5 359 26                        # mem.c3:359:26
	callq	memcpy@PLT
.Ltmp107:
	.loc	1 673 2 is_stmt 1               # string.c3:673:2
	movq	-48(%rbp), %rax
	.loc	1 673 6 is_stmt 0               # string.c3:673:6
	movq	-40(%rbp), %rcx
	movb	$0, (%rax,%rcx)
	.loc	1 674 9 is_stmt 1               # string.c3:674:9
	movq	-48(%rbp), %rax
.Ltmp108:
	.loc	1 691 39 epilogue_begin         # string.c3:691:39
	addq	$288, %rsp                      # imm = 0x120
	popq	%rbp
	.cfi_def_cfa %rsp, 8
	retq
.Ltmp109:
.Lfunc_end10:
	.size	std.core.String.zstr_tcopy, .Lfunc_end10-std.core.String.zstr_tcopy
	.cfi_endproc
                                        # -- End function
	.section	.text.std.core.String.copy,"axG",@progbits,std.core.String.copy,comdat
	.weak	std.core.String.copy            # -- Begin function std.core.String.copy
	.p2align	4, 0x90
	.type	std.core.String.copy,@function
std.core.String.copy:                   # @std.core.String.copy
.Lfunc_begin11:
	.loc	1 698 0                         # string.c3:698:0
	.cfi_startproc
# %bb.0:
	pushq	%rbp
	.cfi_def_cfa_offset 16
	.cfi_offset %rbp, -16
	movq	%rsp, %rbp
	.cfi_def_cfa_register %rbp
	subq	$368, %rsp                      # imm = 0x170
	movq	$0, -136(%rbp)
	movq	%rdi, -16(%rbp)
	movq	%rsi, -8(%rbp)
	movq	%rdx, -32(%rbp)
	movq	%rcx, -24(%rbp)
.Ltmp110:
	.loc	1 700 12 prologue_end           # string.c3:700:12
	movq	-8(%rbp), %rax
	movq	%rax, -40(%rbp)
	movq	-32(%rbp), %rax
	movq	%rax, -64(%rbp)
	movq	-24(%rbp), %rax
	movq	%rax, -56(%rbp)
	.loc	1 701 43                        # string.c3:701:43
	movq	-40(%rbp), %rax
	addq	$1, %rax
	movq	%rax, -72(%rbp)
	movq	-64(%rbp), %rax
	movq	%rax, -96(%rbp)
	movq	-56(%rbp), %rax
	movq	%rax, -88(%rbp)
	movq	-72(%rbp), %rax
	movq	%rax, -104(%rbp)
.Ltmp111:
	.loc	2 80 6                          # mem_allocator.c3:80:6
	cmpq	$0, -104(%rbp)
	jne	.LBB11_2
# %bb.1:
	.loc	2 80 20 is_stmt 0               # mem_allocator.c3:80:20
	movq	$0, -112(%rbp)
	jmp	.LBB11_20
.LBB11_2:
	.loc	2 86 28 is_stmt 1               # mem_allocator.c3:86:28
	movq	-104(%rbp), %rax
	movq	%rax, -272(%rbp)                # 8-byte Spill
	.loc	2 38 12                         # mem_allocator.c3:38:12
	movb	$1, %al
	testb	$1, %al
	movb	%al, -257(%rbp)                 # 1-byte Spill
	jne	.LBB11_6
# %bb.3:
	.loc	2 0 12 is_stmt 0                # mem_allocator.c3:0:12
	movq	$0, -120(%rbp)
.Ltmp112:
	.loc	3 992 9 is_stmt 1               # math.c3:992:9
	xorl	%eax, %eax
                                        # kill: def $al killed $al killed $eax
	xorl	%ecx, %ecx
                                        # kill: def $rcx killed $ecx
	cmpq	-120(%rbp), %rcx
	movb	%al, -273(%rbp)                 # 1-byte Spill
	je	.LBB11_5
# %bb.4:
	.loc	3 992 20 is_stmt 0              # math.c3:992:20
	movq	-120(%rbp), %rax
	.loc	3 992 25                        # math.c3:992:25
	movq	-120(%rbp), %rcx
	subq	$1, %rcx
	.loc	3 992 20                        # math.c3:992:20
	andq	%rcx, %rax
	.loc	3 992 19                        # math.c3:992:19
	cmpq	$0, %rax
	sete	%al
	movb	%al, -273(%rbp)                 # 1-byte Spill
.LBB11_5:
	.loc	3 0 19                          # math.c3:0:19
	movb	-273(%rbp), %al                 # 1-byte Reload
	movb	%al, -257(%rbp)                 # 1-byte Spill
.LBB11_6:
	movb	-257(%rbp), %al                 # 1-byte Reload
	.loc	3 992 19                        # math.c3:992:19
	testb	$1, %al
	jne	.LBB11_8
.Ltmp113:
# %bb.7:
	.loc	2 86 10 is_stmt 1               # mem_allocator.c3:86:10
	leaq	.panic_msg.8(%rip), %rdi
	movl	$65, %esi
	leaq	.file.9(%rip), %rdx
	movl	$16, %ecx
	leaq	.func.36(%rip), %r8
	movl	$4, %r9d
	movq	std.core.builtin.panic@GOTPCREL(%rip), %rax
	movl	$86, (%rsp)
	callq	*(%rax)
.LBB11_8:
	movb	$1, %al
	testb	$1, %al
	jne	.LBB11_10
	jmp	.LBB11_9
.LBB11_9:
	leaq	.panic_msg.10(%rip), %rdi
	movl	$80, %esi
	leaq	.file.9(%rip), %rdx
	movl	$16, %ecx
	leaq	.func.36(%rip), %r8
	movl	$4, %r9d
	movq	std.core.builtin.panic@GOTPCREL(%rip), %rax
	movl	$86, (%rsp)
	callq	*(%rax)
.LBB11_10:
	.loc	2 0 10 is_stmt 0                # mem_allocator.c3:0:10
	movq	-272(%rbp), %rcx                # 8-byte Reload
	.loc	2 86 10                         # mem_allocator.c3:86:10
	xorl	%eax, %eax
                                        # kill: def $rax killed $eax
	cmpq	%rcx, %rax
	jb	.LBB11_12
# %bb.11:
	leaq	.panic_msg.11(%rip), %rdi
	movl	$59, %esi
	leaq	.file.9(%rip), %rdx
	movl	$16, %ecx
	leaq	.func.36(%rip), %r8
	movl	$4, %r9d
	movq	std.core.builtin.panic@GOTPCREL(%rip), %rax
	movl	$86, (%rsp)
	callq	*(%rax)
.LBB11_12:
	movq	-88(%rbp), %rax
	movq	%rax, -288(%rbp)                # 8-byte Spill
	cmpq	-136(%rbp), %rax
	je	.LBB11_14
# %bb.13:
	.loc	2 0 10                          # mem_allocator.c3:0:10
	movq	-288(%rbp), %rax                # 8-byte Reload
	movq	16(%rax), %rdi
	movq	($sel.acquire)@GOTPCREL(%rip), %rsi
	callq	.dyn_search@PLT
	movq	-288(%rbp), %rcx                # 8-byte Reload
	movq	%rax, -128(%rbp)
	movq	%rcx, -136(%rbp)
	movq	%rax, -296(%rbp)                # 8-byte Spill
	jmp	.LBB11_15
.LBB11_14:
	movq	-128(%rbp), %rax
	movq	%rax, -296(%rbp)                # 8-byte Spill
.LBB11_15:
	movq	-296(%rbp), %rax                # 8-byte Reload
	movq	%rax, -304(%rbp)                # 8-byte Spill
	cmpq	$0, %rax
	jne	.LBB11_17
# %bb.16:
	.loc	2 86 10                         # mem_allocator.c3:86:10
	leaq	.panic_msg.12(%rip), %rdi
	movl	$44, %esi
	leaq	.file.9(%rip), %rdx
	movl	$16, %ecx
	leaq	.func.36(%rip), %r8
	movl	$4, %r9d
	movq	std.core.builtin.panic@GOTPCREL(%rip), %rax
	movl	$86, (%rsp)
	callq	*(%rax)
.LBB11_17:
	.loc	2 0 10                          # mem_allocator.c3:0:10
	movq	-304(%rbp), %rax                # 8-byte Reload
	movq	-272(%rbp), %rdx                # 8-byte Reload
	movq	-96(%rbp), %rsi
	.loc	2 86 10                         # mem_allocator.c3:86:10
	leaq	-144(%rbp), %rdi
	xorl	%ecx, %ecx
	xorl	%r8d, %r8d
                                        # kill: def $r8 killed $r8d
	callq	*%rax
	movq	%rax, -312(%rbp)                # 8-byte Spill
	cmpq	$0, %rax
	sete	%al
	testb	$1, %al
	jne	.LBB11_19
# %bb.18:
	.loc	2 0 10                          # mem_allocator.c3:0:10
	movq	-312(%rbp), %rax                # 8-byte Reload
	.loc	2 86 10                         # mem_allocator.c3:86:10
	movq	%rax, -80(%rbp)
	jmp	.LBB11_21
.LBB11_19:
	movq	-144(%rbp), %rax
	movq	%rax, -112(%rbp)
.LBB11_20:
	jmp	.LBB11_22
.LBB11_21:
	movq	($ct.fault)@GOTPCREL(%rip), %rax
	movq	%rax, -152(%rbp)
	leaq	-80(%rbp), %rax
	movq	%rax, -160(%rbp)
	leaq	-160(%rbp), %rax
	movq	%rax, -176(%rbp)
	movq	$1, -168(%rbp)
.Ltmp114:
	.loc	2 75 9 is_stmt 1                # mem_allocator.c3:75:9
	leaq	.panic_msg.13(%rip), %rdi
	movl	$36, %esi
	leaq	.file.9(%rip), %rdx
	movl	$16, %ecx
	leaq	.func.36(%rip), %r8
	movl	$4, %r9d
	leaq	-176(%rbp), %rax
	movl	$75, (%rsp)
	movq	(%rax), %r10
	movq	%r10, 8(%rsp)
	movq	8(%rax), %rax
	movq	%rax, 16(%rsp)
	callq	std.core.builtin.panicf@PLT
.LBB11_22:
	movq	-112(%rbp), %rax
	movq	%rax, -48(%rbp)
.Ltmp115:
	.loc	1 702 12                        # string.c3:702:12
	movq	-48(%rbp), %rax
	movq	%rax, -184(%rbp)
	.loc	1 702 17 is_stmt 0              # string.c3:702:17
	movq	-16(%rbp), %rax
	movq	%rax, -192(%rbp)
	movq	-40(%rbp), %rax
	movq	%rax, -200(%rbp)
.Ltmp116:
	.loc	5 357 23 is_stmt 1              # mem.c3:357:23
	cmpq	$0, -184(%rbp)
	jne	.LBB11_24
# %bb.23:
	leaq	.panic_msg.32(%rip), %rdi
	movl	$37, %esi
	leaq	.file.33(%rip), %rdx
	movl	$6, %ecx
	leaq	.func.36(%rip), %r8
	movl	$4, %r9d
	movq	std.core.builtin.panic@GOTPCREL(%rip), %rax
	movl	$357, (%rsp)                    # imm = 0x165
	callq	*(%rax)
.LBB11_24:
	.loc	5 354 11                        # mem.c3:354:11
	movb	$1, %al
	cmpq	$0, -192(%rbp)
	movb	%al, -313(%rbp)                 # 1-byte Spill
	jne	.LBB11_26
# %bb.25:
	.loc	5 354 26 is_stmt 0              # mem.c3:354:26
	xorl	%eax, %eax
                                        # kill: def $rax killed $eax
	cmpq	-200(%rbp), %rax
	sete	%al
	movb	%al, -313(%rbp)                 # 1-byte Spill
.LBB11_26:
	.loc	5 0 26                          # mem.c3:0:26
	movb	-313(%rbp), %al                 # 1-byte Reload
	.loc	5 354 26                        # mem.c3:354:26
	testb	$1, %al
	jne	.LBB11_28
# %bb.27:
	.loc	5 702 2 is_stmt 1               # mem.c3:702:2
	leaq	.panic_msg.34(%rip), %rdi
	movl	$94, %esi
	leaq	.file(%rip), %rdx
	movl	$9, %ecx
	leaq	.func.36(%rip), %r8
	movl	$4, %r9d
	movq	std.core.builtin.panic@GOTPCREL(%rip), %rax
	movl	$702, (%rsp)                    # imm = 0x2BE
	callq	*(%rax)
.LBB11_28:
	.loc	5 355 11                        # mem.c3:355:11
	movb	$1, %al
	xorl	%ecx, %ecx
                                        # kill: def $rcx killed $ecx
	cmpq	-200(%rbp), %rcx
	movb	%al, -314(%rbp)                 # 1-byte Spill
	je	.LBB11_30
# %bb.29:
	.loc	5 355 23 is_stmt 0              # mem.c3:355:23
	movq	-184(%rbp), %rax
	.loc	5 355 29                        # mem.c3:355:29
	addq	-200(%rbp), %rax
	.loc	5 355 23                        # mem.c3:355:23
	cmpq	-192(%rbp), %rax
	setbe	%al
	movb	%al, -314(%rbp)                 # 1-byte Spill
.LBB11_30:
	.loc	5 0 23                          # mem.c3:0:23
	movb	-314(%rbp), %cl                 # 1-byte Reload
	.loc	5 355 23                        # mem.c3:355:23
	movb	$1, %al
	testb	$1, %cl
	movb	%al, -315(%rbp)                 # 1-byte Spill
	jne	.LBB11_32
# %bb.31:
	.loc	5 355 43                        # mem.c3:355:43
	movq	-192(%rbp), %rax
	.loc	5 355 49                        # mem.c3:355:49
	addq	-200(%rbp), %rax
	.loc	5 355 43                        # mem.c3:355:43
	cmpq	-184(%rbp), %rax
	setbe	%al
	movb	%al, -315(%rbp)                 # 1-byte Spill
.LBB11_32:
	.loc	5 0 43                          # mem.c3:0:43
	movb	-315(%rbp), %al                 # 1-byte Reload
	.loc	5 355 43                        # mem.c3:355:43
	testb	$1, %al
	jne	.LBB11_34
# %bb.33:
	.loc	5 702 2 is_stmt 1               # mem.c3:702:2
	leaq	.panic_msg.35(%rip), %rdi
	movl	$95, %esi
	leaq	.file(%rip), %rdx
	movl	$9, %ecx
	leaq	.func.36(%rip), %r8
	movl	$4, %r9d
	movq	std.core.builtin.panic@GOTPCREL(%rip), %rax
	movl	$702, (%rsp)                    # imm = 0x2BE
	callq	*(%rax)
.Ltmp117:
.LBB11_34:
	.loc	5 359 11                        # mem.c3:359:11
	movq	-184(%rbp), %rdi
	.loc	5 359 16 is_stmt 0              # mem.c3:359:16
	movq	-192(%rbp), %rsi
	.loc	5 359 21                        # mem.c3:359:21
	movq	-200(%rbp), %rdx
	.loc	5 359 26                        # mem.c3:359:26
	callq	memcpy@PLT
.Ltmp118:
	.loc	1 703 2 is_stmt 1               # string.c3:703:2
	movq	-48(%rbp), %rax
	.loc	1 703 6 is_stmt 0               # string.c3:703:6
	movq	-40(%rbp), %rcx
	movb	$0, (%rax,%rcx)
	.loc	1 704 17 is_stmt 1              # string.c3:704:17
	movq	-48(%rbp), %rax
	movq	%rax, -344(%rbp)                # 8-byte Spill
	.loc	1 704 22 is_stmt 0              # string.c3:704:22
	movq	-40(%rbp), %rcx
	addq	$0, %rcx
	movq	%rcx, -336(%rbp)                # 8-byte Spill
	xorl	%eax, %eax
                                        # kill: def $rax killed $eax
	cmpq	%rcx, %rax
	seta	%al
	subq	$0, %rcx
	movq	%rcx, -328(%rbp)                # 8-byte Spill
	testb	$1, %al
	jne	.LBB11_36
# %bb.35:
	.loc	1 0 22                          # string.c3:0:22
	movq	-344(%rbp), %rax                # 8-byte Reload
	movq	-336(%rbp), %rcx                # 8-byte Reload
	movq	%rcx, -248(%rbp)
	movq	%rax, -256(%rbp)
	movq	-256(%rbp), %rax
	movq	-248(%rbp), %rdx
	addq	$368, %rsp                      # imm = 0x170
	popq	%rbp
	.cfi_def_cfa %rsp, 8
	retq
.LBB11_36:
	.cfi_def_cfa %rbp, 16
	movq	-328(%rbp), %rax                # 8-byte Reload
	movq	%rax, -208(%rbp)
	movq	($ct.long)@GOTPCREL(%rip), %rax
	movq	%rax, -216(%rbp)
	leaq	-208(%rbp), %rax
	movq	%rax, -224(%rbp)
	leaq	-224(%rbp), %rax
	movq	%rax, -240(%rbp)
	movq	$1, -232(%rbp)
	.loc	1 704 9                         # string.c3:704:9
	leaq	.panic_msg.5(%rip), %rdi
	movl	$43, %esi
	leaq	.file(%rip), %rdx
	movl	$9, %ecx
	leaq	.func.36(%rip), %r8
	movl	$4, %r9d
	leaq	-240(%rbp), %rax
	movl	$704, (%rsp)                    # imm = 0x2C0
	movq	(%rax), %r10
	movq	%r10, 8(%rsp)
	movq	8(%rax), %rax
	movq	%rax, 16(%rsp)
	callq	std.core.builtin.panicf@PLT
.Ltmp119:
.Lfunc_end11:
	.size	std.core.String.copy, .Lfunc_end11-std.core.String.copy
	.cfi_endproc
                                        # -- End function
	.section	.text.std.core.String.to_uint,"axG",@progbits,std.core.String.to_uint,comdat
	.weak	std.core.String.to_uint         # -- Begin function std.core.String.to_uint
	.p2align	4, 0x90
	.type	std.core.String.to_uint,@function
std.core.String.to_uint:                # @std.core.String.to_uint
.Lfunc_begin12:
	.loc	1 1082 0 is_stmt 1              # string.c3:1082:0
	.cfi_startproc
# %bb.0:
	pushq	%rbp
	.cfi_def_cfa_offset 16
	.cfi_offset %rbp, -16
	movq	%rsp, %rbp
	.cfi_def_cfa_register %rbp
	subq	$656, %rsp                      # imm = 0x290
	movq	%rdi, -488(%rbp)                # 8-byte Spill
	movq	%rsi, -16(%rbp)
	movq	%rdx, -8(%rbp)
	movl	%ecx, -20(%rbp)
	movq	-16(%rbp), %rax
	movq	%rax, -48(%rbp)
	movq	-8(%rbp), %rax
	movq	%rax, -40(%rbp)
	movl	-20(%rbp), %eax
	movl	%eax, -52(%rbp)
.Ltmp120:
	.loc	1 995 11 prologue_end           # string.c3:995:11
	xorl	%eax, %eax
                                        # kill: def $al killed $al killed $eax
	cmpl	$0, -52(%rbp)
	movb	%al, -477(%rbp)                 # 1-byte Spill
	jle	.LBB12_2
# %bb.1:
	.loc	1 995 23 is_stmt 0              # string.c3:995:23
	cmpl	$16, -52(%rbp)
	setle	%al
	movb	%al, -477(%rbp)                 # 1-byte Spill
.LBB12_2:
	.loc	1 0 23                          # string.c3:0:23
	movb	-477(%rbp), %al                 # 1-byte Reload
	.loc	1 995 23                        # string.c3:995:23
	testb	$1, %al
	jne	.LBB12_4
# %bb.3:
	.loc	1 1082 49 is_stmt 1             # string.c3:1082:49
	leaq	.panic_msg.37(%rip), %rdi
	movl	$63, %esi
	leaq	.file(%rip), %rdx
	movl	$9, %ecx
	leaq	.func.38(%rip), %r8
	movl	$7, %r9d
	movq	std.core.builtin.panic@GOTPCREL(%rip), %rax
	movl	$1082, (%rsp)                   # imm = 0x43A
	callq	*(%rax)
.Ltmp121:
.LBB12_4:
	.loc	1 1003 12                       # string.c3:1003:12
	movq	-40(%rbp), %rax
	movq	%rax, -64(%rbp)
	.loc	1 1004 14                       # string.c3:1004:14
	movq	$0, -72(%rbp)
	.loc	1 1005 14                       # string.c3:1005:14
	movq	-48(%rbp), %rax
	movq	%rax, -80(%rbp)
.LBB12_5:                               # =>This Inner Loop Header: Depth=1
.Ltmp122:
	.loc	1 1006 9                        # string.c3:1006:9
	movq	-72(%rbp), %rcx
	xorl	%eax, %eax
                                        # kill: def $al killed $al killed $eax
	cmpq	-64(%rbp), %rcx
	movb	%al, -489(%rbp)                 # 1-byte Spill
	jae	.LBB12_8
# %bb.6:                                #   in Loop: Header=BB12_5 Depth=1
	.loc	1 1006 24 is_stmt 0             # string.c3:1006:24
	movq	-80(%rbp), %rax
	.loc	1 1006 28                       # string.c3:1006:28
	movq	-72(%rbp), %rcx
	movb	(%rax,%rcx), %al
	movb	%al, -81(%rbp)
	movb	-81(%rbp), %al
	movb	%al, -82(%rbp)
.Ltmp123:
	.file	6 "/nix/store/ihf6dmy4cll298qphlwhnmgml1y02khm-c3c-0.7.5/lib/c3/std/core" "ascii.c3"
	.loc	6 19 42 is_stmt 1               # ascii.c3:19:42
	movzbl	-82(%rbp), %eax
                                        # kill: def $rax killed $eax
	movq	%rax, -504(%rbp)                # 8-byte Spill
	cmpq	$256, %rax                      # imm = 0x100
	setae	%al
	testb	$1, %al
	jne	.LBB12_66
# %bb.7:                                #   in Loop: Header=BB12_5 Depth=1
	.loc	6 0 42 is_stmt 0                # ascii.c3:0:42
	movq	-504(%rbp), %rcx                # 8-byte Reload
	.loc	6 19 42                         # ascii.c3:19:42
	movq	std.core.ascii.ASCII_LOOKUP@GOTPCREL(%rip), %rax
	movw	(%rax,%rcx,2), %ax
	shrw	$10, %ax
	andw	$1, %ax
                                        # kill: def $al killed $al killed $ax
	movb	%al, -489(%rbp)                 # 1-byte Spill
.LBB12_8:                               #   in Loop: Header=BB12_5 Depth=1
	.loc	6 0 42                          # ascii.c3:0:42
	movb	-489(%rbp), %al                 # 1-byte Reload
	.loc	6 19 42                         # ascii.c3:19:42
	testb	$1, %al
	jne	.LBB12_9
	jmp	.LBB12_10
.Ltmp124:
.LBB12_9:                               #   in Loop: Header=BB12_5 Depth=1
	.loc	1 1006 47 is_stmt 1             # string.c3:1006:47
	movq	-72(%rbp), %rax
	addq	$1, %rax
	movq	%rax, -72(%rbp)
	jmp	.LBB12_5
.Ltmp125:
.LBB12_10:
	.loc	1 1007 6                        # string.c3:1007:6
	movq	-64(%rbp), %rax
	cmpq	-72(%rbp), %rax
	jne	.LBB12_12
# %bb.11:
	.loc	1 1007 27 is_stmt 0             # string.c3:1007:27
	movq	std.core.string.EMPTY_STRING@GOTPCREL(%rip), %rax
	movq	%rax, -32(%rbp)
	jmp	.LBB12_65
.LBB12_12:
	.loc	1 1008 7 is_stmt 1              # string.c3:1008:7
	movb	$0, -161(%rbp)
.Ltmp126:
	.loc	1 1009 10                       # string.c3:1009:10
	movq	-40(%rbp), %rcx
	movq	%rcx, -528(%rbp)                # 8-byte Spill
	movq	-48(%rbp), %rax
	movq	%rax, -520(%rbp)                # 8-byte Spill
	.loc	1 1009 15 is_stmt 0             # string.c3:1009:15
	movq	-72(%rbp), %rax
	movq	%rax, -512(%rbp)                # 8-byte Spill
	cmpq	%rcx, %rax
	setae	%al
	testb	$1, %al
	jne	.LBB12_67
# %bb.13:
	.loc	1 0 15                          # string.c3:0:15
	movq	-520(%rbp), %rax                # 8-byte Reload
	movq	-512(%rbp), %rcx                # 8-byte Reload
	movb	(%rax,%rcx), %al
	movb	%al, -241(%rbp)
# %bb.14:
	movb	-241(%rbp), %al
	movb	%al, -529(%rbp)                 # 1-byte Spill
	subb	$43, %al
	je	.LBB12_17
	jmp	.LBB12_71
.LBB12_71:
	movb	-529(%rbp), %al                 # 1-byte Reload
	subb	$45, %al
	jne	.LBB12_18
	jmp	.LBB12_15
.LBB12_15:
.Ltmp127:
	.loc	1 1012 8 is_stmt 1              # string.c3:1012:8
	jmp	.LBB12_16
.LBB12_16:
	.loc	1 1012 31 is_stmt 0             # string.c3:1012:31
	movq	std.core.string.NEGATIVE_VALUE@GOTPCREL(%rip), %rax
	movq	%rax, -32(%rbp)
	jmp	.LBB12_65
.Ltmp128:
.LBB12_17:
	.loc	1 1016 4 is_stmt 1              # string.c3:1016:4
	movq	-72(%rbp), %rax
	addq	$1, %rax
	movq	%rax, -72(%rbp)
	jmp	.LBB12_19
.Ltmp129:
.LBB12_18:
	.loc	1 1018 4                        # string.c3:1018:4
	jmp	.LBB12_19
.Ltmp130:
.LBB12_19:
	.loc	1 1020 6                        # string.c3:1020:6
	movq	-64(%rbp), %rax
	cmpq	-72(%rbp), %rax
	jne	.LBB12_21
# %bb.20:
	.loc	1 1020 27 is_stmt 0             # string.c3:1020:27
	movq	std.core.string.MALFORMED_INTEGER@GOTPCREL(%rip), %rax
	movq	%rax, -32(%rbp)
	jmp	.LBB12_65
.LBB12_21:
	.loc	1 1021 20 is_stmt 1             # string.c3:1021:20
	movl	-52(%rbp), %eax
	movl	%eax, -248(%rbp)
	.loc	1 1022 6                        # string.c3:1022:6
	movq	-40(%rbp), %rcx
	movq	%rcx, -560(%rbp)                # 8-byte Spill
	movq	-48(%rbp), %rax
	movq	%rax, -552(%rbp)                # 8-byte Spill
	.loc	1 1022 11 is_stmt 0             # string.c3:1022:11
	movq	-72(%rbp), %rax
	movq	%rax, -544(%rbp)                # 8-byte Spill
	cmpq	%rcx, %rax
	setae	%al
	testb	$1, %al
	jne	.LBB12_68
# %bb.22:
	.loc	1 0 11                          # string.c3:0:11
	movq	-552(%rbp), %rcx                # 8-byte Reload
	movq	-544(%rbp), %rdx                # 8-byte Reload
	.loc	1 1022 6                        # string.c3:1022:6
	xorl	%eax, %eax
                                        # kill: def $al killed $al killed $eax
	cmpb	$48, (%rcx,%rdx)
	movb	%al, -561(%rbp)                 # 1-byte Spill
	jne	.LBB12_24
# %bb.23:
	.loc	1 1022 28                       # string.c3:1022:28
	cmpl	$10, -52(%rbp)
	sete	%al
	movb	%al, -561(%rbp)                 # 1-byte Spill
.LBB12_24:
	.loc	1 0 28                          # string.c3:0:28
	movb	-561(%rbp), %al                 # 1-byte Reload
	.loc	1 1022 28                       # string.c3:1022:28
	testb	$1, %al
	jne	.LBB12_25
	jmp	.LBB12_37
.LBB12_25:
.Ltmp131:
	.loc	1 1024 3 is_stmt 1              # string.c3:1024:3
	movq	-72(%rbp), %rax
	addq	$1, %rax
	movq	%rax, -72(%rbp)
	.loc	1 1025 7                        # string.c3:1025:7
	movq	-72(%rbp), %rax
	cmpq	-64(%rbp), %rax
	jne	.LBB12_27
# %bb.26:
	.loc	1 1025 28 is_stmt 0             # string.c3:1025:28
	movl	$0, -56(%rbp)
	jmp	.LBB12_64
.LBB12_27:
.Ltmp132:
	.loc	1 1026 11 is_stmt 1             # string.c3:1026:11
	movq	-40(%rbp), %rcx
	movq	%rcx, -592(%rbp)                # 8-byte Spill
	movq	-48(%rbp), %rax
	movq	%rax, -584(%rbp)                # 8-byte Spill
	.loc	1 1026 16 is_stmt 0             # string.c3:1026:16
	movq	-72(%rbp), %rax
	movq	%rax, -576(%rbp)                # 8-byte Spill
	cmpq	%rcx, %rax
	setae	%al
	testb	$1, %al
	jne	.LBB12_69
# %bb.28:
	.loc	1 0 16                          # string.c3:0:16
	movq	-584(%rbp), %rax                # 8-byte Reload
	movq	-576(%rbp), %rcx                # 8-byte Reload
	movb	(%rax,%rcx), %al
	movb	%al, -385(%rbp)
# %bb.29:
	movb	-385(%rbp), %al
	movb	%al, -593(%rbp)                 # 1-byte Spill
	subb	$66, %al
	je	.LBB12_31
	jmp	.LBB12_72
.LBB12_72:
	movb	-593(%rbp), %al                 # 1-byte Reload
	subb	$79, %al
	je	.LBB12_32
	jmp	.LBB12_73
.LBB12_73:
	movb	-593(%rbp), %al                 # 1-byte Reload
	subb	$88, %al
	je	.LBB12_30
	jmp	.LBB12_74
.LBB12_74:
	movb	-593(%rbp), %al                 # 1-byte Reload
	subb	$98, %al
	je	.LBB12_31
	jmp	.LBB12_75
.LBB12_75:
	movb	-593(%rbp), %al                 # 1-byte Reload
	subb	$111, %al
	je	.LBB12_32
	jmp	.LBB12_76
.LBB12_76:
	movb	-593(%rbp), %al                 # 1-byte Reload
	subb	$120, %al
	jne	.LBB12_33
	jmp	.LBB12_30
.LBB12_30:
.Ltmp133:
	.loc	1 1030 17 is_stmt 1             # string.c3:1030:17
	movl	$16, -248(%rbp)
	.loc	1 1031 5                        # string.c3:1031:5
	movq	-72(%rbp), %rax
	addq	$1, %rax
	movq	%rax, -72(%rbp)
	jmp	.LBB12_34
.Ltmp134:
.LBB12_31:
	.loc	1 1034 17                       # string.c3:1034:17
	movl	$2, -248(%rbp)
	.loc	1 1035 5                        # string.c3:1035:5
	movq	-72(%rbp), %rax
	addq	$1, %rax
	movq	%rax, -72(%rbp)
	jmp	.LBB12_34
.Ltmp135:
.LBB12_32:
	.loc	1 1038 17                       # string.c3:1038:17
	movl	$8, -248(%rbp)
	.loc	1 1039 5                        # string.c3:1039:5
	movq	-72(%rbp), %rax
	addq	$1, %rax
	movq	%rax, -72(%rbp)
	jmp	.LBB12_34
.Ltmp136:
.LBB12_33:
	.loc	1 1041 5                        # string.c3:1041:5
	jmp	.LBB12_34
.Ltmp137:
.LBB12_34:
	.loc	1 1043 7                        # string.c3:1043:7
	movq	-64(%rbp), %rax
	cmpq	-72(%rbp), %rax
	jne	.LBB12_36
# %bb.35:
	.loc	1 1043 28 is_stmt 0             # string.c3:1043:28
	movq	std.core.string.MALFORMED_INTEGER@GOTPCREL(%rip), %rax
	movq	%rax, -32(%rbp)
	jmp	.LBB12_65
.LBB12_36:
	jmp	.LBB12_37
.Ltmp138:
.LBB12_37:
	.loc	1 1045 16 is_stmt 1             # string.c3:1045:16
	movl	$0, -392(%rbp)
.LBB12_38:                              # =>This Inner Loop Header: Depth=1
.Ltmp139:
	.loc	1 1046 9                        # string.c3:1046:9
	movq	-72(%rbp), %rax
	cmpq	-64(%rbp), %rax
	je	.LBB12_63
# %bb.39:                               #   in Loop: Header=BB12_38 Depth=1
.Ltmp140:
	.loc	1 1048 12                       # string.c3:1048:12
	movq	-40(%rbp), %rcx
	movq	%rcx, -624(%rbp)                # 8-byte Spill
	movq	-48(%rbp), %rax
	movq	%rax, -616(%rbp)                # 8-byte Spill
	.loc	1 1048 17 is_stmt 0             # string.c3:1048:17
	movq	-72(%rbp), %rax
	movq	%rax, -608(%rbp)                # 8-byte Spill
	movq	%rax, %rdx
	addq	$1, %rdx
	movq	%rdx, -72(%rbp)
	cmpq	%rcx, %rax
	setae	%al
	testb	$1, %al
	jne	.LBB12_70
# %bb.40:                               #   in Loop: Header=BB12_38 Depth=1
	.loc	1 0 17                          # string.c3:0:17
	movq	-616(%rbp), %rax                # 8-byte Reload
	movq	-608(%rbp), %rcx                # 8-byte Reload
	.loc	1 1048 17                       # string.c3:1048:17
	movb	(%rax,%rcx), %al
	movb	%al, -393(%rbp)
	movb	$1, -465(%rbp)
# %bb.41:                               #   in Loop: Header=BB12_38 Depth=1
	.loc	1 0 17                          # string.c3:0:17
	movb	-465(%rbp), %al
	movb	%al, -626(%rbp)                 # 1-byte Spill
.Ltmp141:
	.loc	1 1051 9 is_stmt 1              # string.c3:1051:9
	movb	$1, %al
	movl	$10, %ecx
	cmpl	-248(%rbp), %ecx
	movb	%al, -625(%rbp)                 # 1-byte Spill
	ja	.LBB12_43
# %bb.42:                               #   in Loop: Header=BB12_38 Depth=1
	.loc	1 1051 27 is_stmt 0             # string.c3:1051:27
	cmpb	$65, -393(%rbp)
	setb	%al
	movb	%al, -625(%rbp)                 # 1-byte Spill
.LBB12_43:                              #   in Loop: Header=BB12_38 Depth=1
	.loc	1 0 27                          # string.c3:0:27
	movb	-626(%rbp), %cl                 # 1-byte Reload
	movb	-625(%rbp), %al                 # 1-byte Reload
	.loc	1 1051 27                       # string.c3:1051:27
	andb	$1, %cl
	andb	$1, %al
	subb	%cl, %al
	jne	.LBB12_45
	jmp	.LBB12_44
.LBB12_44:                              #   in Loop: Header=BB12_38 Depth=1
.Ltmp142:
	.loc	1 1051 38                       # string.c3:1051:38
	movb	-393(%rbp), %al
	subb	$48, %al
	movb	%al, -393(%rbp)
	jmp	.LBB12_53
.Ltmp143:
.LBB12_45:                              #   in Loop: Header=BB12_38 Depth=1
	.loc	1 0 38                          # string.c3:0:38
	movb	-626(%rbp), %cl                 # 1-byte Reload
	.loc	1 1052 9 is_stmt 1              # string.c3:1052:9
	movb	-393(%rbp), %al
	subb	$71, %al
	setb	%al
	andb	$1, %cl
	subb	%cl, %al
	jne	.LBB12_47
	jmp	.LBB12_46
.LBB12_46:                              #   in Loop: Header=BB12_38 Depth=1
.Ltmp144:
	.loc	1 1052 38 is_stmt 0             # string.c3:1052:38
	movb	-393(%rbp), %al
	subb	$55, %al
	movb	%al, -393(%rbp)
	jmp	.LBB12_53
.Ltmp145:
.LBB12_47:                              #   in Loop: Header=BB12_38 Depth=1
	.loc	1 1053 9 is_stmt 1              # string.c3:1053:9
	movb	$1, %al
	cmpb	$97, -393(%rbp)
	movb	%al, -627(%rbp)                 # 1-byte Spill
	jb	.LBB12_49
# %bb.48:                               #   in Loop: Header=BB12_38 Depth=1
	.loc	1 1053 20 is_stmt 0             # string.c3:1053:20
	cmpb	$102, -393(%rbp)
	seta	%al
	movb	%al, -627(%rbp)                 # 1-byte Spill
.LBB12_49:                              #   in Loop: Header=BB12_38 Depth=1
	.loc	1 0 20                          # string.c3:0:20
	movb	-626(%rbp), %cl                 # 1-byte Reload
	movb	-627(%rbp), %al                 # 1-byte Reload
	.loc	1 1053 20                       # string.c3:1053:20
	andb	$1, %cl
	andb	$1, %al
	subb	%cl, %al
	jne	.LBB12_51
	jmp	.LBB12_50
.LBB12_50:
.Ltmp146:
	.loc	1 1053 45                       # string.c3:1053:45
	movq	std.core.string.MALFORMED_INTEGER@GOTPCREL(%rip), %rax
	movq	%rax, -32(%rbp)
	jmp	.LBB12_65
.LBB12_51:                              #   in Loop: Header=BB12_38 Depth=1
	jmp	.LBB12_52
.Ltmp147:
.LBB12_52:                              #   in Loop: Header=BB12_38 Depth=1
	.loc	1 1054 38 is_stmt 1             # string.c3:1054:38
	movb	-393(%rbp), %al
	subb	$87, %al
	movb	%al, -393(%rbp)
.Ltmp148:
.LBB12_53:                              #   in Loop: Header=BB12_38 Depth=1
	.loc	1 1056 7                        # string.c3:1056:7
	movzbl	-393(%rbp), %eax
	cmpl	-248(%rbp), %eax
	jb	.LBB12_55
# %bb.54:
	.loc	1 1056 30 is_stmt 0             # string.c3:1056:30
	movq	std.core.string.MALFORMED_INTEGER@GOTPCREL(%rip), %rax
	movq	%rax, -32(%rbp)
	jmp	.LBB12_65
.LBB12_55:                              #   in Loop: Header=BB12_38 Depth=1
.Ltmp149:
	.loc	1 1059 8 is_stmt 1              # string.c3:1059:8
	testb	$1, -161(%rbp)
	je	.LBB12_59
# %bb.56:                               #   in Loop: Header=BB12_38 Depth=1
.Ltmp150:
	.loc	1 1061 23                       # string.c3:1061:23
	movl	-392(%rbp), %eax
	imull	-248(%rbp), %eax
	.loc	1 1061 43 is_stmt 0             # string.c3:1061:43
	movzbl	-393(%rbp), %ecx
	.loc	1 1061 23                       # string.c3:1061:23
	subl	%ecx, %eax
	movl	%eax, -472(%rbp)
	.loc	1 1062 9 is_stmt 1              # string.c3:1062:9
	movl	-472(%rbp), %eax
	cmpl	-392(%rbp), %eax
	jbe	.LBB12_58
# %bb.57:
	.loc	1 1062 35 is_stmt 0             # string.c3:1062:35
	movq	std.core.string.INTEGER_OVERFLOW@GOTPCREL(%rip), %rax
	movq	%rax, -32(%rbp)
	jmp	.LBB12_65
.LBB12_58:                              #   in Loop: Header=BB12_38 Depth=1
	.loc	1 1063 13 is_stmt 1             # string.c3:1063:13
	movl	-472(%rbp), %eax
	movl	%eax, -392(%rbp)
	.loc	1 1064 5                        # string.c3:1064:5
	jmp	.LBB12_62
.Ltmp151:
.LBB12_59:                              #   in Loop: Header=BB12_38 Depth=1
	.loc	1 1066 22                       # string.c3:1066:22
	movl	-392(%rbp), %eax
	imull	-248(%rbp), %eax
	.loc	1 1066 42 is_stmt 0             # string.c3:1066:42
	movzbl	-393(%rbp), %ecx
	.loc	1 1066 22                       # string.c3:1066:22
	addl	%ecx, %eax
	movl	%eax, -476(%rbp)
	.loc	1 1067 8 is_stmt 1              # string.c3:1067:8
	movl	-476(%rbp), %eax
	cmpl	-392(%rbp), %eax
	jae	.LBB12_61
# %bb.60:
	.loc	1 1067 34 is_stmt 0             # string.c3:1067:34
	movq	std.core.string.INTEGER_OVERFLOW@GOTPCREL(%rip), %rax
	movq	%rax, -32(%rbp)
	jmp	.LBB12_65
.LBB12_61:                              #   in Loop: Header=BB12_38 Depth=1
	.loc	1 1068 12 is_stmt 1             # string.c3:1068:12
	movl	-476(%rbp), %eax
	movl	%eax, -392(%rbp)
.LBB12_62:                              #   in Loop: Header=BB12_38 Depth=1
	jmp	.LBB12_38
.Ltmp152:
.LBB12_63:
	.loc	1 1071 9                        # string.c3:1071:9
	movl	-392(%rbp), %eax
	movl	%eax, -56(%rbp)
.LBB12_64:
	.loc	1 0 9 is_stmt 0                 # string.c3:0:9
	movq	-488(%rbp), %rax                # 8-byte Reload
	.loc	1 1071 9                        # string.c3:1071:9
	movl	-56(%rbp), %ecx
	movl	%ecx, (%rax)
	xorl	%eax, %eax
                                        # kill: def $rax killed $eax
	.loc	1 1071 9 epilogue_begin         # string.c3:1071:9
	addq	$656, %rsp                      # imm = 0x290
	popq	%rbp
	.cfi_def_cfa %rsp, 8
	retq
.LBB12_65:
	.cfi_def_cfa %rbp, 16
	movq	-32(%rbp), %rax
	.loc	1 1071 9 epilogue_begin         # string.c3:1071:9
	addq	$656, %rsp                      # imm = 0x290
	popq	%rbp
	.cfi_def_cfa %rsp, 8
	retq
.LBB12_66:
	.cfi_def_cfa %rbp, 16
	.loc	1 0 9                           # string.c3:0:9
	movq	-504(%rbp), %rcx                # 8-byte Reload
	movq	$256, -96(%rbp)                 # imm = 0x100
	movq	($ct.ulong)@GOTPCREL(%rip), %rax
	movq	%rcx, -104(%rbp)
	movq	%rax, -136(%rbp)
	leaq	-96(%rbp), %rcx
	movq	%rcx, -144(%rbp)
	movq	%rax, -120(%rbp)
	leaq	-104(%rbp), %rax
	movq	%rax, -128(%rbp)
	leaq	-144(%rbp), %rax
	movq	%rax, -160(%rbp)
	movq	$2, -152(%rbp)
.Ltmp153:
	.loc	6 19 42 is_stmt 1               # ascii.c3:19:42
	leaq	.panic_msg(%rip), %rdi
	movl	$59, %esi
	leaq	.file.39(%rip), %rdx
	movl	$8, %ecx
	leaq	.func.38(%rip), %r8
	movl	$7, %r9d
	leaq	-160(%rbp), %rax
	movl	$19, (%rsp)
	movq	(%rax), %r10
	movq	%r10, 8(%rsp)
	movq	8(%rax), %rax
	movq	%rax, 16(%rsp)
	callq	std.core.builtin.panicf@PLT
.Ltmp154:
.LBB12_67:
	.loc	6 0 42 is_stmt 0                # ascii.c3:0:42
	movq	-512(%rbp), %rcx                # 8-byte Reload
	movq	-528(%rbp), %rax                # 8-byte Reload
	movq	%rax, -176(%rbp)
	movq	($ct.ulong)@GOTPCREL(%rip), %rax
	movq	%rcx, -184(%rbp)
	movq	%rax, -216(%rbp)
	leaq	-176(%rbp), %rcx
	movq	%rcx, -224(%rbp)
	movq	%rax, -200(%rbp)
	leaq	-184(%rbp), %rax
	movq	%rax, -208(%rbp)
	leaq	-224(%rbp), %rax
	movq	%rax, -240(%rbp)
	movq	$2, -232(%rbp)
.Ltmp155:
	.loc	1 1009 15 is_stmt 1             # string.c3:1009:15
	leaq	.panic_msg(%rip), %rdi
	movl	$59, %esi
	leaq	.file(%rip), %rdx
	movl	$9, %ecx
	leaq	.func.38(%rip), %r8
	movl	$7, %r9d
	leaq	-240(%rbp), %rax
	movl	$1009, (%rsp)                   # imm = 0x3F1
	movq	(%rax), %r10
	movq	%r10, 8(%rsp)
	movq	8(%rax), %rax
	movq	%rax, 16(%rsp)
	callq	std.core.builtin.panicf@PLT
.Ltmp156:
.LBB12_68:
	.loc	1 0 15 is_stmt 0                # string.c3:0:15
	movq	-544(%rbp), %rcx                # 8-byte Reload
	movq	-560(%rbp), %rax                # 8-byte Reload
	movq	%rax, -256(%rbp)
	movq	($ct.ulong)@GOTPCREL(%rip), %rax
	movq	%rcx, -264(%rbp)
	movq	%rax, -296(%rbp)
	leaq	-256(%rbp), %rcx
	movq	%rcx, -304(%rbp)
	movq	%rax, -280(%rbp)
	leaq	-264(%rbp), %rax
	movq	%rax, -288(%rbp)
	leaq	-304(%rbp), %rax
	movq	%rax, -320(%rbp)
	movq	$2, -312(%rbp)
	.loc	1 1022 11 is_stmt 1             # string.c3:1022:11
	leaq	.panic_msg(%rip), %rdi
	movl	$59, %esi
	leaq	.file(%rip), %rdx
	movl	$9, %ecx
	leaq	.func.38(%rip), %r8
	movl	$7, %r9d
	leaq	-320(%rbp), %rax
	movl	$1022, (%rsp)                   # imm = 0x3FE
	movq	(%rax), %r10
	movq	%r10, 8(%rsp)
	movq	8(%rax), %rax
	movq	%rax, 16(%rsp)
	callq	std.core.builtin.panicf@PLT
.LBB12_69:
	.loc	1 0 11 is_stmt 0                # string.c3:0:11
	movq	-576(%rbp), %rcx                # 8-byte Reload
	movq	-592(%rbp), %rax                # 8-byte Reload
	movq	%rax, -328(%rbp)
	movq	($ct.ulong)@GOTPCREL(%rip), %rax
	movq	%rcx, -336(%rbp)
	movq	%rax, -360(%rbp)
	leaq	-328(%rbp), %rcx
	movq	%rcx, -368(%rbp)
	movq	%rax, -344(%rbp)
	leaq	-336(%rbp), %rax
	movq	%rax, -352(%rbp)
	leaq	-368(%rbp), %rax
	movq	%rax, -384(%rbp)
	movq	$2, -376(%rbp)
.Ltmp157:
	.loc	1 1026 16 is_stmt 1             # string.c3:1026:16
	leaq	.panic_msg(%rip), %rdi
	movl	$59, %esi
	leaq	.file(%rip), %rdx
	movl	$9, %ecx
	leaq	.func.38(%rip), %r8
	movl	$7, %r9d
	leaq	-384(%rbp), %rax
	movl	$1026, (%rsp)                   # imm = 0x402
	movq	(%rax), %r10
	movq	%r10, 8(%rsp)
	movq	8(%rax), %rax
	movq	%rax, 16(%rsp)
	callq	std.core.builtin.panicf@PLT
.Ltmp158:
.LBB12_70:
	.loc	1 0 16 is_stmt 0                # string.c3:0:16
	movq	-608(%rbp), %rcx                # 8-byte Reload
	movq	-624(%rbp), %rax                # 8-byte Reload
	movq	%rax, -408(%rbp)
	movq	($ct.ulong)@GOTPCREL(%rip), %rax
	movq	%rcx, -416(%rbp)
	movq	%rax, -440(%rbp)
	leaq	-408(%rbp), %rcx
	movq	%rcx, -448(%rbp)
	movq	%rax, -424(%rbp)
	leaq	-416(%rbp), %rax
	movq	%rax, -432(%rbp)
	leaq	-448(%rbp), %rax
	movq	%rax, -464(%rbp)
	movq	$2, -456(%rbp)
.Ltmp159:
	.loc	1 1048 17 is_stmt 1             # string.c3:1048:17
	leaq	.panic_msg(%rip), %rdi
	movl	$59, %esi
	leaq	.file(%rip), %rdx
	movl	$9, %ecx
	leaq	.func.38(%rip), %r8
	movl	$7, %r9d
	leaq	-464(%rbp), %rax
	movl	$1048, (%rsp)                   # imm = 0x418
	movq	(%rax), %r10
	movq	%r10, 8(%rsp)
	movq	8(%rax), %rax
	movq	%rax, 16(%rsp)
	callq	std.core.builtin.panicf@PLT
.Ltmp160:
.Lfunc_end12:
	.size	std.core.String.to_uint, .Lfunc_end12-std.core.String.to_uint
	.cfi_endproc
                                        # -- End function
	.section	.text.std.core.string.bformat,"axG",@progbits,std.core.string.bformat,comdat
	.weak	std.core.string.bformat         # -- Begin function std.core.string.bformat
	.p2align	4, 0x90
	.type	std.core.string.bformat,@function
std.core.string.bformat:                # @std.core.string.bformat
.Lfunc_begin13:
	.loc	1 117 0                         # string.c3:117:0
	.cfi_startproc
# %bb.0:
	pushq	%rbp
	.cfi_def_cfa_offset 16
	.cfi_offset %rbp, -16
	movq	%rsp, %rbp
	.cfi_def_cfa_register %rbp
	subq	$160, %rsp
	movq	%rdi, -16(%rbp)
	movq	%rsi, -8(%rbp)
	movq	%rdx, -32(%rbp)
	movq	%rcx, -24(%rbp)
	movq	%r8, -48(%rbp)
	movq	%r9, -40(%rbp)
	vmovdqu	-16(%rbp), %xmm0
	vmovdqa	%xmm0, -80(%rbp)
	vxorps	%xmm0, %xmm0, %xmm0
	vmovdqa	%xmm0, -112(%rbp)
	movq	$0, -96(%rbp)
.Ltmp161:
	.file	7 "/nix/store/ihf6dmy4cll298qphlwhnmgml1y02khm-c3c-0.7.5/lib/c3/std/core/allocators" "arena_allocator.c3"
	.loc	7 46 33 prologue_end            # arena_allocator.c3:46:33
	movq	-80(%rbp), %rsi
	movq	-72(%rbp), %rdx
	leaq	-112(%rbp), %rdi
	.loc	7 46 9 is_stmt 0                # arena_allocator.c3:46:9
	callq	std.core.mem.allocator.ArenaAllocator.init@PLT
.Ltmp162:
	.loc	1 119 43 is_stmt 1              # string.c3:119:43
	movq	($ct.std.core.mem.allocator.ArenaAllocator)@GOTPCREL(%rip), %rcx
	.loc	1 119 68 is_stmt 0              # string.c3:119:68
	movq	-24(%rbp), %rdx
	.loc	1 119 78                        # string.c3:119:78
	movq	-40(%rbp), %rsi
	.loc	1 119 68                        # string.c3:119:68
	leaq	(%rdx,%rsi,8), %rdx
	movq	%rcx, -120(%rbp)
	movq	%rax, -128(%rbp)
	movq	-128(%rbp), %rdi
	movq	-120(%rbp), %rsi
	.loc	1 119 16                        # string.c3:119:16
	callq	std.core.dstring.new_with_capacity@PLT
	movq	%rax, -56(%rbp)
	movq	-32(%rbp), %rdx
	movq	-24(%rbp), %rcx
	movq	-48(%rbp), %r8
	movq	-40(%rbp), %r9
	leaq	-136(%rbp), %rdi
	leaq	-56(%rbp), %rsi
	.loc	1 120 2 is_stmt 1               # string.c3:120:2
	callq	std.core.dstring.DString.appendf@PLT
	.loc	1 121 9                         # string.c3:121:9
	movq	-56(%rbp), %rdi
	callq	std.core.dstring.DString.str_view@PLT
	movq	%rdx, -144(%rbp)
	movq	%rax, -152(%rbp)
	movq	-152(%rbp), %rax
	movq	-144(%rbp), %rdx
	addq	$160, %rsp
	popq	%rbp
	.cfi_def_cfa %rsp, 8
	retq
.Ltmp163:
.Lfunc_end13:
	.size	std.core.string.bformat, .Lfunc_end13-std.core.string.bformat
	.cfi_endproc
                                        # -- End function
	.section	.text..dyn_search,"axG",@progbits,.dyn_search,comdat
	.weak	.dyn_search                     # -- Begin function .dyn_search
	.p2align	4, 0x90
	.type	.dyn_search,@function
.dyn_search:                            # @.dyn_search
.Lfunc_begin14:
	.cfi_startproc
# %bb.0:
	movq	%rsi, -16(%rsp)                 # 8-byte Spill
	movq	%rdi, -8(%rsp)                  # 8-byte Spill
	jmp	.LBB14_1
.LBB14_1:                               # =>This Inner Loop Header: Depth=1
	movq	-8(%rsp), %rax                  # 8-byte Reload
	movq	%rax, -24(%rsp)                 # 8-byte Spill
	cmpq	$0, %rax
	jne	.LBB14_3
# %bb.2:
	xorl	%eax, %eax
                                        # kill: def $rax killed $eax
	retq
.LBB14_3:                               #   in Loop: Header=BB14_1 Depth=1
	movq	-24(%rsp), %rax                 # 8-byte Reload
	movq	-16(%rsp), %rcx                 # 8-byte Reload
	cmpq	%rcx, 8(%rax)
	jne	.LBB14_5
# %bb.4:
	movq	-24(%rsp), %rax                 # 8-byte Reload
	movq	(%rax), %rax
	retq
.LBB14_5:                               #   in Loop: Header=BB14_1 Depth=1
	movq	-24(%rsp), %rax                 # 8-byte Reload
	movq	16(%rax), %rax
	movq	%rax, -8(%rsp)                  # 8-byte Spill
	jmp	.LBB14_1
.Lfunc_end14:
	.size	.dyn_search, .Lfunc_end14-.dyn_search
	.cfi_endproc
                                        # -- End function
	.type	$ct.std.core.string.ZString,@object # @"$ct.std.core.string.ZString"
	.section	".data.$ct.std.core.string.ZString","awG",@progbits,"$ct.std.core.string.ZString",comdat
	.weak	$ct.std.core.string.ZString
	.p2align	3, 0x0
$ct.std.core.string.ZString:
	.byte	18                              # 0x12
	.zero	7
	.quad	($ct.p$char)
	.quad	0
	.quad	8                               # 0x8
	.quad	($ct.p$char)
	.quad	0                               # 0x0
	.size	$ct.std.core.string.ZString, 48

	.type	$ct.p$char,@object              # @"$ct.p$char"
	.section	".data.$ct.p$char","awG",@progbits,"$ct.p$char",comdat
	.weak	$ct.p$char
	.p2align	3, 0x0
$ct.p$char:
	.byte	19                              # 0x13
	.zero	7
	.quad	0                               # 0x0
	.quad	0
	.quad	8                               # 0x8
	.quad	($ct.char)
	.quad	0                               # 0x0
	.size	$ct.p$char, 48

	.type	$ct.char,@object                # @"$ct.char"
	.section	".data.$ct.char","awG",@progbits,"$ct.char",comdat
	.weak	$ct.char
	.p2align	3, 0x0
$ct.char:
	.byte	3                               # 0x3
	.zero	7
	.quad	0                               # 0x0
	.quad	0
	.quad	1                               # 0x1
	.quad	0                               # 0x0
	.quad	0                               # 0x0
	.size	$ct.char, 48

	.type	$ct.std.core.mem.allocator.ArenaAllocator,@object # @"$ct.std.core.mem.allocator.ArenaAllocator"
	.section	".data.$ct.std.core.mem.allocator.ArenaAllocator","awG",@progbits,"$ct.std.core.mem.allocator.ArenaAllocator",comdat
	.weak	$ct.std.core.mem.allocator.ArenaAllocator
	.p2align	3, 0x0
$ct.std.core.mem.allocator.ArenaAllocator:
	.byte	10                              # 0xa
	.zero	7
	.quad	0                               # 0x0
	.quad	0
	.quad	24                              # 0x18
	.quad	0                               # 0x0
	.quad	2                               # 0x2
	.size	$ct.std.core.mem.allocator.ArenaAllocator, 48

	.type	$ct.ulong,@object               # @"$ct.ulong"
	.section	".data.$ct.ulong","awG",@progbits,"$ct.ulong",comdat
	.weak	$ct.ulong
	.p2align	3, 0x0
$ct.ulong:
	.byte	3                               # 0x3
	.zero	7
	.quad	0                               # 0x0
	.quad	0
	.quad	8                               # 0x8
	.quad	0                               # 0x0
	.quad	0                               # 0x0
	.size	$ct.ulong, 48

	.type	.panic_msg,@object              # @.panic_msg
	.section	.rodata,"a",@progbits
.panic_msg:
	.asciz	"Array index out of bounds (array had size %d, index was %d)"
	.size	.panic_msg, 60

	.type	.file,@object                   # @.file
.file:
	.asciz	"string.c3"
	.size	.file, 10

	.type	.func,@object                   # @.func
.func:
	.asciz	"trim_left"
	.size	.func, 10

	.type	$ct.long,@object                # @"$ct.long"
	.section	".data.$ct.long","awG",@progbits,"$ct.long",comdat
	.weak	$ct.long
	.p2align	3, 0x0
$ct.long:
	.byte	2                               # 0x2
	.zero	7
	.quad	0                               # 0x0
	.quad	0
	.quad	8                               # 0x8
	.quad	0                               # 0x0
	.quad	0                               # 0x0
	.size	$ct.long, 48

	.type	.panic_msg.1,@object            # @.panic_msg.1
	.section	.rodata,"a",@progbits
.panic_msg.1:
	.asciz	"Index exceeds array length (array had size %d, index was %d)."
	.size	.panic_msg.1, 62

	.type	.panic_msg.2,@object            # @.panic_msg.2
.panic_msg.2:
	.asciz	"End index out of bounds (end index of %d exceeds size of %d)"
	.size	.panic_msg.2, 61

	.type	.panic_msg.3,@object            # @.panic_msg.3
.panic_msg.3:
	.asciz	"Negative array indexing (index was %d)"
	.size	.panic_msg.3, 39

	.type	.func.4,@object                 # @.func.4
.func.4:
	.asciz	"trim_right"
	.size	.func.4, 11

	.type	.panic_msg.5,@object            # @.panic_msg.5
.panic_msg.5:
	.asciz	"Negative value (%d) given for slice length."
	.size	.panic_msg.5, 44

	.type	.panic_msg.6,@object            # @.panic_msg.6
.panic_msg.6:
	.asciz	"@require \"delimiter.len > 0\" violated: 'The delimiter must be at least 1 character long'."
	.size	.panic_msg.6, 90

	.type	.func.7,@object                 # @.func.7
.func.7:
	.asciz	"split"
	.size	.func.7, 6

	.type	$sel.acquire,@object            # @"$sel.acquire"
	.section	".rodata.$sel.acquire","aG",@progbits,"$sel.acquire",comdat
	.weak	$sel.acquire
$sel.acquire:
	.asciz	"acquire"
	.size	$sel.acquire, 8

	.type	.panic_msg.8,@object            # @.panic_msg.8
	.section	.rodata,"a",@progbits
.panic_msg.8:
	.asciz	"@require \"!alignment || math::is_power_of_2(alignment)\" violated."
	.size	.panic_msg.8, 66

	.type	.file.9,@object                 # @.file.9
.file.9:
	.asciz	"mem_allocator.c3"
	.size	.file.9, 17

	.type	.panic_msg.10,@object           # @.panic_msg.10
.panic_msg.10:
	.asciz	"@require \"alignment <= mem::MAX_MEMORY_ALIGNMENT\" violated: 'alignment too big'."
	.size	.panic_msg.10, 81

	.type	.panic_msg.11,@object           # @.panic_msg.11
.panic_msg.11:
	.asciz	"@require \"size > 0\" violated: 'The size must be 1 or more'."
	.size	.panic_msg.11, 60

	.type	.panic_msg.12,@object           # @.panic_msg.12
.panic_msg.12:
	.asciz	"No method 'acquire' could be found on target"
	.size	.panic_msg.12, 45

	.type	$ct.fault,@object               # @"$ct.fault"
	.section	".data.$ct.fault","awG",@progbits,"$ct.fault",comdat
	.weak	$ct.fault
	.p2align	3, 0x0
$ct.fault:
	.byte	6                               # 0x6
	.zero	7
	.quad	0                               # 0x0
	.quad	0
	.quad	8                               # 0x8
	.quad	0                               # 0x0
	.quad	0                               # 0x0
	.size	$ct.fault, 48

	.type	.panic_msg.13,@object           # @.panic_msg.13
	.section	.rodata,"a",@progbits
.panic_msg.13:
	.asciz	"Unexpected fault '%s' was unwrapped!"
	.size	.panic_msg.13, 37

	.type	std.core.builtin.NOT_FOUND,@object # @std.core.builtin.NOT_FOUND
	.section	.data.rel.ro.std.core.builtin.NOT_FOUND,"awG",@progbits,std.core.builtin.NOT_FOUND,comdat
	.weak	std.core.builtin.NOT_FOUND
	.p2align	3, 0x0
std.core.builtin.NOT_FOUND:
	.quad	std.core.builtin.NOT_FOUND.nameof
	.quad	18                              # 0x12
	.size	std.core.builtin.NOT_FOUND, 16

	.type	std.core.builtin.NOT_FOUND.nameof,@object # @std.core.builtin.NOT_FOUND.nameof
	.section	.rodata,"a",@progbits
std.core.builtin.NOT_FOUND.nameof:
	.asciz	"builtin::NOT_FOUND"
	.size	std.core.builtin.NOT_FOUND.nameof, 19

	.type	.panic_msg.14,@object           # @.panic_msg.14
.panic_msg.14:
	.asciz	"@require \"substr.len > 0\" violated: 'The string must be len 1 or more'."
	.size	.panic_msg.14, 72

	.type	$sel.release,@object            # @"$sel.release"
	.section	".rodata.$sel.release","aG",@progbits,"$sel.release",comdat
	.weak	$sel.release
$sel.release:
	.asciz	"release"
	.size	$sel.release, 8

	.type	.panic_msg.15,@object           # @.panic_msg.15
	.section	.rodata,"a",@progbits
.panic_msg.15:
	.asciz	"@require \"ptr != null\" violated: 'Empty pointers should never be released'."
	.size	.panic_msg.15, 76

	.type	.panic_msg.16,@object           # @.panic_msg.16
.panic_msg.16:
	.asciz	"No method 'release' could be found on target"
	.size	.panic_msg.16, 45

	.type	$sel.resize,@object             # @"$sel.resize"
	.section	".rodata.$sel.resize","aG",@progbits,"$sel.resize",comdat
	.weak	$sel.resize
$sel.resize:
	.asciz	"resize"
	.size	$sel.resize, 7

	.type	.panic_msg.17,@object           # @.panic_msg.17
	.section	.rodata,"a",@progbits
.panic_msg.17:
	.asciz	"@require \"ptr != null\" violated."
	.size	.panic_msg.17, 33

	.type	.panic_msg.18,@object           # @.panic_msg.18
.panic_msg.18:
	.asciz	"@require \"new_size > 0\" violated."
	.size	.panic_msg.18, 34

	.type	.panic_msg.19,@object           # @.panic_msg.19
.panic_msg.19:
	.asciz	"No method 'resize' could be found on target"
	.size	.panic_msg.19, 44

	.type	.panic_msg.20,@object           # @.panic_msg.20
.panic_msg.20:
	.asciz	"Unaligned access: ptr %% %s = %s, use @unaligned_load / @unaligned_store for unaligned access."
	.size	.panic_msg.20, 95

	.type	.panic_msg.21,@object           # @.panic_msg.21
.panic_msg.21:
	.asciz	"@ensure \"return.len > 0 || skip_empty\" violated."
	.size	.panic_msg.21, 49

	.type	.file.22,@object                # @.file.22
.file.22:
	.asciz	"builtin.c3"
	.size	.file.22, 11

	.type	.func.23,@object                # @.func.23
.func.23:
	.asciz	"contains"
	.size	.func.23, 9

	.type	.func.24,@object                # @.func.24
.func.24:
	.asciz	"rindex_of_char"
	.size	.func.24, 15

	.type	.panic_msg.25,@object           # @.panic_msg.25
.panic_msg.25:
	.asciz	"@ensure \"return < self.len\" violated."
	.size	.panic_msg.25, 38

	.type	.func.26,@object                # @.func.26
.func.26:
	.asciz	"index_of"
	.size	.func.26, 9

	.type	.panic_msg.27,@object           # @.panic_msg.27
.panic_msg.27:
	.asciz	"Negative size (start %d is less than end %d)"
	.size	.panic_msg.27, 45

	.type	.func.28,@object                # @.func.28
.func.28:
	.asciz	"str_view"
	.size	.func.28, 9

	.type	.panic_msg.29,@object           # @.panic_msg.29
.panic_msg.29:
	.asciz	"Dereference of null pointer, 'ptr' was null."
	.size	.panic_msg.29, 45

	.type	.func.30,@object                # @.func.30
.func.30:
	.asciz	"len"
	.size	.func.30, 4

	.type	.func.31,@object                # @.func.31
.func.31:
	.asciz	"zstr_copy"
	.size	.func.31, 10

	.type	.panic_msg.32,@object           # @.panic_msg.32
.panic_msg.32:
	.asciz	"Passed null to a ref ('&') parameter."
	.size	.panic_msg.32, 38

	.type	.file.33,@object                # @.file.33
.file.33:
	.asciz	"mem.c3"
	.size	.file.33, 7

	.type	.panic_msg.34,@object           # @.panic_msg.34
.panic_msg.34:
	.asciz	"@require \"src != null || len == 0\" violated: 'Copying a null with non-zero length is invalid'."
	.size	.panic_msg.34, 95

	.type	.panic_msg.35,@object           # @.panic_msg.35
.panic_msg.35:
	.asciz	"@require \"len == 0 || dst + len <= src || src + len <= dst\" violated: 'Ranges may not overlap'."
	.size	.panic_msg.35, 96

	.type	.func.36,@object                # @.func.36
.func.36:
	.asciz	"copy"
	.size	.func.36, 5

	.type	.panic_msg.37,@object           # @.panic_msg.37
.panic_msg.37:
	.asciz	"@require \"base > 0 && base <= 16\" violated: 'Unsupported base'."
	.size	.panic_msg.37, 64

	.type	.func.38,@object                # @.func.38
.func.38:
	.asciz	"to_uint"
	.size	.func.38, 8

	.type	.file.39,@object                # @.file.39
.file.39:
	.asciz	"ascii.c3"
	.size	.file.39, 9

	.type	std.core.string.EMPTY_STRING,@object # @std.core.string.EMPTY_STRING
	.section	.data.rel.ro.std.core.string.EMPTY_STRING,"awG",@progbits,std.core.string.EMPTY_STRING,comdat
	.weak	std.core.string.EMPTY_STRING
	.p2align	3, 0x0
std.core.string.EMPTY_STRING:
	.quad	std.core.string.EMPTY_STRING.nameof
	.quad	20                              # 0x14
	.size	std.core.string.EMPTY_STRING, 16

	.type	std.core.string.EMPTY_STRING.nameof,@object # @std.core.string.EMPTY_STRING.nameof
	.section	.rodata,"a",@progbits
std.core.string.EMPTY_STRING.nameof:
	.asciz	"string::EMPTY_STRING"
	.size	std.core.string.EMPTY_STRING.nameof, 21

	.type	std.core.string.NEGATIVE_VALUE,@object # @std.core.string.NEGATIVE_VALUE
	.section	.data.rel.ro.std.core.string.NEGATIVE_VALUE,"awG",@progbits,std.core.string.NEGATIVE_VALUE,comdat
	.weak	std.core.string.NEGATIVE_VALUE
	.p2align	3, 0x0
std.core.string.NEGATIVE_VALUE:
	.quad	std.core.string.NEGATIVE_VALUE.nameof
	.quad	22                              # 0x16
	.size	std.core.string.NEGATIVE_VALUE, 16

	.type	std.core.string.NEGATIVE_VALUE.nameof,@object # @std.core.string.NEGATIVE_VALUE.nameof
	.section	.rodata,"a",@progbits
std.core.string.NEGATIVE_VALUE.nameof:
	.asciz	"string::NEGATIVE_VALUE"
	.size	std.core.string.NEGATIVE_VALUE.nameof, 23

	.type	std.core.string.MALFORMED_INTEGER,@object # @std.core.string.MALFORMED_INTEGER
	.section	.data.rel.ro.std.core.string.MALFORMED_INTEGER,"awG",@progbits,std.core.string.MALFORMED_INTEGER,comdat
	.weak	std.core.string.MALFORMED_INTEGER
	.p2align	3, 0x0
std.core.string.MALFORMED_INTEGER:
	.quad	std.core.string.MALFORMED_INTEGER.nameof
	.quad	25                              # 0x19
	.size	std.core.string.MALFORMED_INTEGER, 16

	.type	std.core.string.MALFORMED_INTEGER.nameof,@object # @std.core.string.MALFORMED_INTEGER.nameof
	.section	.rodata,"a",@progbits
std.core.string.MALFORMED_INTEGER.nameof:
	.asciz	"string::MALFORMED_INTEGER"
	.size	std.core.string.MALFORMED_INTEGER.nameof, 26

	.type	std.core.string.INTEGER_OVERFLOW,@object # @std.core.string.INTEGER_OVERFLOW
	.section	.data.rel.ro.std.core.string.INTEGER_OVERFLOW,"awG",@progbits,std.core.string.INTEGER_OVERFLOW,comdat
	.weak	std.core.string.INTEGER_OVERFLOW
	.p2align	3, 0x0
std.core.string.INTEGER_OVERFLOW:
	.quad	std.core.string.INTEGER_OVERFLOW.nameof
	.quad	24                              # 0x18
	.size	std.core.string.INTEGER_OVERFLOW, 16

	.type	std.core.string.INTEGER_OVERFLOW.nameof,@object # @std.core.string.INTEGER_OVERFLOW.nameof
	.section	.rodata,"a",@progbits
std.core.string.INTEGER_OVERFLOW.nameof:
	.asciz	"string::INTEGER_OVERFLOW"
	.size	std.core.string.INTEGER_OVERFLOW.nameof, 25

	.section	".note.GNU-stack","",@progbits